
capusbpsp.elf:     file format elf32-littlemips


Disassembly of section .text:

00000000 <findStub.constprop.1>:
       0:	27bdfff0 	addiu	sp,sp,-16
       4:	afb00000 	sw	s0,0(sp)
       8:	afbf000c 	sw	ra,12(sp)
       c:	afb20008 	sw	s2,8(sp)
      10:	afb10004 	sw	s1,4(sp)
      14:	10800015 	beqz	a0,6c <findStub.constprop.1+0x6c>
      18:	00008021 	move	s0,zero
      1c:	8c900048 	lw	s0,72(a0)
      20:	12000012 	beqz	s0,6c <findStub.constprop.1+0x6c>
      24:	3c11cccc 	lui	s1,0xcccc
      28:	8c82004c 	lw	v0,76(a0)
      2c:	3631cccd 	ori	s1,s1,0xcccd
      30:	00510019 	multu	v0,s1
      34:	00008810 	mfhi	s1
      38:	00118902 	srl	s1,s1,0x4
      3c:	02118821 	addu	s1,s0,s1
      40:	12110011 	beq	s0,s1,88 <findStub.constprop.1+0x88>
      44:	3c120000 	lui	s2,0x0
      48:	08000016 	j	58 <findStub.constprop.1+0x58>
      4c:	26524d18 	addiu	s2,s2,19736
      50:	1211000e 	beq	s0,s1,8c <findStub.constprop.1+0x8c>
      54:	8fbf000c 	lw	ra,12(sp)
      58:	8e040000 	lw	a0,0(s0)
      5c:	0c00059c 	jal	1670 <strcmp>
      60:	02402821 	move	a1,s2
      64:	5440fffa 	bnezl	v0,50 <findStub.constprop.1+0x50>
      68:	26100014 	addiu	s0,s0,20
      6c:	8fbf000c 	lw	ra,12(sp)
      70:	02001021 	move	v0,s0
      74:	8fb20008 	lw	s2,8(sp)
      78:	8fb10004 	lw	s1,4(sp)
      7c:	8fb00000 	lw	s0,0(sp)
      80:	03e00008 	jr	ra
      84:	27bd0010 	addiu	sp,sp,16
      88:	8fbf000c 	lw	ra,12(sp)
      8c:	00008021 	move	s0,zero
      90:	02001021 	move	v0,s0
      94:	8fb20008 	lw	s2,8(sp)
      98:	8fb10004 	lw	s1,4(sp)
      9c:	8fb00000 	lw	s0,0(sp)
      a0:	03e00008 	jr	ra
      a4:	27bd0010 	addiu	sp,sp,16

000000a8 <mainThread>:
      a8:	27bdffe8 	addiu	sp,sp,-24
      ac:	afb10004 	sw	s1,4(sp)
      b0:	00a08821 	move	s1,a1
      b4:	afb3000c 	sw	s3,12(sp)
      b8:	2405002f 	li	a1,47
      bc:	00809821 	move	s3,a0
      c0:	02202021 	move	a0,s1
      c4:	afbf0014 	sw	ra,20(sp)
      c8:	afb40010 	sw	s4,16(sp)
      cc:	afb20008 	sw	s2,8(sp)
      d0:	0c000571 	jal	15c4 <strrchr>
      d4:	afb00000 	sw	s0,0(sp)
      d8:	54400001 	bnezl	v0,e0 <mainThread+0x38>
      dc:	a0400000 	sb	zero,0(v0)
      e0:	0c0012ce 	jal	4b38 <sceIoChdir>
      e4:	02202021 	move	a0,s1
      e8:	1040000c 	beqz	v0,11c <mainThread+0x74>
      ec:	00408021 	move	s0,v0
      f0:	0c0012e2 	jal	4b88 <sceKernelExitDeleteThread>
      f4:	02002021 	move	a0,s0
      f8:	8fbf0014 	lw	ra,20(sp)
      fc:	02001021 	move	v0,s0
     100:	8fb40010 	lw	s4,16(sp)
     104:	8fb3000c 	lw	s3,12(sp)
     108:	8fb20008 	lw	s2,8(sp)
     10c:	8fb10004 	lw	s1,4(sp)
     110:	8fb00000 	lw	s0,0(sp)
     114:	03e00008 	jr	ra
     118:	27bd0018 	addiu	sp,sp,24
     11c:	3c040000 	lui	a0,0x0
     120:	24844d2c 	addiu	a0,a0,19756
     124:	24050001 	li	a1,1
     128:	0c0012c8 	jal	4b20 <sceIoOpen>
     12c:	240601ff 	li	a2,511
     130:	0440005d 	bltz	v0,2a8 <mainThread+0x200>
     134:	00409021 	move	s2,v0
     138:	3c140000 	lui	s4,0x0
     13c:	00402021 	move	a0,v0
     140:	26855b74 	addiu	a1,s4,23412
     144:	0c0012ca 	jal	4b28 <sceIoRead>
     148:	24060020 	li	a2,32
     14c:	0442ffe8 	bltzl	v0,f0 <mainThread+0x48>
     150:	00408021 	move	s0,v0
     154:	0c0012c6 	jal	4b18 <sceIoClose>
     158:	02402021 	move	a0,s2
     15c:	82825b74 	lb	v0,23412(s4)
     160:	1040005d 	beqz	v0,2d8 <mainThread+0x230>
     164:	2403000d 	li	v1,13
     168:	1043005b 	beq	v0,v1,2d8 <mainThread+0x230>
     16c:	2403000a 	li	v1,10
     170:	10430059 	beq	v0,v1,2d8 <mainThread+0x230>
     174:	3c040000 	lui	a0,0x0
     178:	26825b74 	addiu	v0,s4,23412
     17c:	24845b94 	addiu	a0,a0,23444
     180:	2405000d 	li	a1,13
     184:	08000069 	j	1a4 <mainThread+0xfc>
     188:	2406000a 	li	a2,10
     18c:	50600054 	beqzl	v1,2e0 <mainThread+0x238>
     190:	a0400000 	sb	zero,0(v0)
     194:	50650052 	beql	v1,a1,2e0 <mainThread+0x238>
     198:	a0400000 	sb	zero,0(v0)
     19c:	50660050 	beql	v1,a2,2e0 <mainThread+0x238>
     1a0:	a0400000 	sb	zero,0(v0)
     1a4:	24420001 	addiu	v0,v0,1
     1a8:	5444fff8 	bnel	v0,a0,18c <mainThread+0xe4>
     1ac:	80430000 	lb	v1,0(v0)
     1b0:	3c120000 	lui	s2,0x0
     1b4:	26945b74 	addiu	s4,s4,23412
     1b8:	0c0012e6 	jal	4b98 <sceKernelFindModuleByName>
     1bc:	02802021 	move	a0,s4
     1c0:	1040fffd 	beqz	v0,1b8 <mainThread+0x110>
     1c4:	ae425b94 	sw	v0,23444(s2)
     1c8:	0c000000 	jal	0 <findStub.constprop.1>
     1cc:	00402021 	move	a0,v0
     1d0:	3c030000 	lui	v1,0x0
     1d4:	1040005e 	beqz	v0,350 <mainThread+0x2a8>
     1d8:	ac625b98 	sw	v0,23448(v1)
     1dc:	8c4c000c 	lw	t4,12(v0)
     1e0:	51800059 	beqzl	t4,348 <mainThread+0x2a0>
     1e4:	3c108002 	lui	s0,0x8002
     1e8:	8c4a0010 	lw	t2,16(v0)
     1ec:	51400056 	beqzl	t2,348 <mainThread+0x2a0>
     1f0:	3c108002 	lui	s0,0x8002
     1f4:	904b0008 	lbu	t3,8(v0)
     1f8:	1160001d 	beqz	t3,270 <mainThread+0x1c8>
     1fc:	3c0d0000 	lui	t5,0x0
     200:	3c080000 	lui	t0,0x0
     204:	3c070000 	lui	a3,0x0
     208:	01804821 	move	t1,t4
     20c:	25a658cc 	addiu	a2,t5,22732
     210:	2508592c 	addiu	t0,t0,22828
     214:	24e758d8 	addiu	a3,a3,22744
     218:	3c12fc00 	lui	s2,0xfc00
     21c:	3c0e0800 	lui	t6,0x800
     220:	3c0f8002 	lui	t7,0x8002
     224:	3c148000 	lui	s4,0x8000
     228:	8d250000 	lw	a1,0(t1)
     22c:	8da358cc 	lw	v1,22732(t5)
     230:	1065002d 	beq	v1,a1,2e8 <mainThread+0x240>
     234:	00c01821 	move	v1,a2
     238:	08000094 	j	250 <mainThread+0x1a8>
     23c:	2463000c 	addiu	v1,v1,12
     240:	8c84fff4 	lw	a0,-12(a0)
     244:	50850029 	beql	a0,a1,2ec <mainThread+0x244>
     248:	8d440000 	lw	a0,0(t2)
     24c:	2463000c 	addiu	v1,v1,12
     250:	00662023 	subu	a0,v1,a2
     254:	1468fffa 	bne	v1,t0,240 <mainThread+0x198>
     258:	00e42021 	addu	a0,a3,a0
     25c:	000b1880 	sll	v1,t3,0x2
     260:	25290004 	addiu	t1,t1,4
     264:	01831821 	addu	v1,t4,v1
     268:	1523ffef 	bne	t1,v1,228 <mainThread+0x180>
     26c:	254a0008 	addiu	t2,t2,8
     270:	02602021 	move	a0,s3
     274:	0c00020e 	jal	838 <cupIoInit>
     278:	02202821 	move	a1,s1
     27c:	0c0012e2 	jal	4b88 <sceKernelExitDeleteThread>
     280:	02002021 	move	a0,s0
     284:	8fbf0014 	lw	ra,20(sp)
     288:	02001021 	move	v0,s0
     28c:	8fb40010 	lw	s4,16(sp)
     290:	8fb3000c 	lw	s3,12(sp)
     294:	8fb20008 	lw	s2,8(sp)
     298:	8fb10004 	lw	s1,4(sp)
     29c:	8fb00000 	lw	s0,0(sp)
     2a0:	03e00008 	jr	ra
     2a4:	27bd0018 	addiu	sp,sp,24
     2a8:	00408021 	move	s0,v0
     2ac:	0c0012e2 	jal	4b88 <sceKernelExitDeleteThread>
     2b0:	02002021 	move	a0,s0
     2b4:	8fbf0014 	lw	ra,20(sp)
     2b8:	02001021 	move	v0,s0
     2bc:	8fb40010 	lw	s4,16(sp)
     2c0:	8fb3000c 	lw	s3,12(sp)
     2c4:	8fb20008 	lw	s2,8(sp)
     2c8:	8fb10004 	lw	s1,4(sp)
     2cc:	8fb00000 	lw	s0,0(sp)
     2d0:	03e00008 	jr	ra
     2d4:	27bd0018 	addiu	sp,sp,24
     2d8:	26825b74 	addiu	v0,s4,23412
     2dc:	a0400000 	sb	zero,0(v0)
     2e0:	0800006d 	j	1b4 <mainThread+0x10c>
     2e4:	3c120000 	lui	s2,0x0
     2e8:	8d440000 	lw	a0,0(t2)
     2ec:	00925824 	and	t3,a0,s2
     2f0:	116e0011 	beq	t3,t6,338 <mainThread+0x290>
     2f4:	00002821 	move	a1,zero
     2f8:	8c640008 	lw	a0,8(v1)
     2fc:	ac650004 	sw	a1,4(v1)
     300:	30850003 	andi	a1,a0,0x3
     304:	14a00003 	bnez	a1,314 <mainThread+0x26c>
     308:	25e3006a 	addiu	v1,t7,106
     30c:	7c83c880 	ext	v1,a0,0x2,0x1a
     310:	006e1825 	or	v1,v1,t6
     314:	ad430000 	sw	v1,0(t2)
     318:	904b0008 	lbu	t3,8(v0)
     31c:	25290004 	addiu	t1,t1,4
     320:	000b1880 	sll	v1,t3,0x2
     324:	01831821 	addu	v1,t4,v1
     328:	1523ffbf 	bne	t1,v1,228 <mainThread+0x180>
     32c:	254a0008 	addiu	t2,t2,8
     330:	0800009d 	j	274 <mainThread+0x1cc>
     334:	02602021 	move	a0,s3
     338:	7c85c800 	ext	a1,a0,0x0,0x1a
     33c:	00052880 	sll	a1,a1,0x2
     340:	080000be 	j	2f8 <mainThread+0x250>
     344:	00b42825 	or	a1,a1,s4
     348:	0800009c 	j	270 <mainThread+0x1c8>
     34c:	2610006a 	addiu	s0,s0,106
     350:	3c108002 	lui	s0,0x8002
     354:	0800003c 	j	f0 <mainThread+0x48>
     358:	26100001 	addiu	s0,s0,1

0000035c <module_start>:
     35c:	27bdffe8 	addiu	sp,sp,-24
     360:	afb10008 	sw	s1,8(sp)
     364:	afb00004 	sw	s0,4(sp)
     368:	00808821 	move	s1,a0
     36c:	00a08021 	move	s0,a1
     370:	3c040000 	lui	a0,0x0
     374:	3c050000 	lui	a1,0x0
     378:	24844c24 	addiu	a0,a0,19492
     37c:	24a500a8 	addiu	a1,a1,168
     380:	2406006f 	li	a2,111
     384:	24070800 	li	a3,2048
     388:	00004021 	move	t0,zero
     38c:	00004821 	move	t1,zero
     390:	afb2000c 	sw	s2,12(sp)
     394:	afbf0014 	sw	ra,20(sp)
     398:	0c0012dc 	jal	4b70 <sceKernelCreateThread>
     39c:	afb30010 	sw	s3,16(sp)
     3a0:	04400009 	bltz	v0,3c8 <module_start+0x6c>
     3a4:	00409021 	move	s2,v0
     3a8:	3c130000 	lui	s3,0x0
     3ac:	00402021 	move	a0,v0
     3b0:	02202821 	move	a1,s1
     3b4:	02003021 	move	a2,s0
     3b8:	0c0012e0 	jal	4b80 <sceKernelStartThread>
     3bc:	ae625b9c 	sw	v0,23452(s3)
     3c0:	14400009 	bnez	v0,3e8 <module_start+0x8c>
     3c4:	00409021 	move	s2,v0
     3c8:	8fbf0014 	lw	ra,20(sp)
     3cc:	02401021 	move	v0,s2
     3d0:	8fb30010 	lw	s3,16(sp)
     3d4:	8fb2000c 	lw	s2,12(sp)
     3d8:	8fb10008 	lw	s1,8(sp)
     3dc:	8fb00004 	lw	s0,4(sp)
     3e0:	03e00008 	jr	ra
     3e4:	27bd0018 	addiu	sp,sp,24
     3e8:	0c0012de 	jal	4b78 <sceKernelDeleteThread>
     3ec:	8e645b9c 	lw	a0,23452(s3)
     3f0:	8fbf0014 	lw	ra,20(sp)
     3f4:	02401021 	move	v0,s2
     3f8:	8fb30010 	lw	s3,16(sp)
     3fc:	8fb2000c 	lw	s2,12(sp)
     400:	8fb10008 	lw	s1,8(sp)
     404:	8fb00004 	lw	s0,4(sp)
     408:	03e00008 	jr	ra
     40c:	27bd0018 	addiu	sp,sp,24

00000410 <module_stop>:
     410:	3c020000 	lui	v0,0x0
     414:	8c445b9c 	lw	a0,23452(v0)
     418:	27bdfff8 	addiu	sp,sp,-8
     41c:	1480000d 	bnez	a0,454 <module_stop+0x44>
     420:	afbf0004 	sw	ra,4(sp)
     424:	0c00023e 	jal	8f8 <cupIoDeinit>
     428:	00000000 	nop
     42c:	3c040000 	lui	a0,0x0
     430:	0c0012e6 	jal	4b98 <sceKernelFindModuleByName>
     434:	24845b74 	addiu	a0,a0,23412
     438:	3c030000 	lui	v1,0x0
     43c:	8c635b94 	lw	v1,23444(v1)
     440:	1043000f 	beq	v0,v1,480 <module_stop+0x70>
     444:	8fbf0004 	lw	ra,4(sp)
     448:	00001021 	move	v0,zero
     44c:	03e00008 	jr	ra
     450:	27bd0008 	addiu	sp,sp,8
     454:	0c0012e4 	jal	4b90 <sceKernelTerminateDeleteThread>
     458:	00000000 	nop
     45c:	0c00023e 	jal	8f8 <cupIoDeinit>
     460:	00000000 	nop
     464:	3c040000 	lui	a0,0x0
     468:	0c0012e6 	jal	4b98 <sceKernelFindModuleByName>
     46c:	24845b74 	addiu	a0,a0,23412
     470:	3c030000 	lui	v1,0x0
     474:	8c635b94 	lw	v1,23444(v1)
     478:	1443fff3 	bne	v0,v1,448 <module_stop+0x38>
     47c:	8fbf0004 	lw	ra,4(sp)
     480:	0c000000 	jal	0 <findStub.constprop.1>
     484:	00402021 	move	a0,v0
     488:	3c030000 	lui	v1,0x0
     48c:	8c635b98 	lw	v1,23448(v1)
     490:	1443ffed 	bne	v0,v1,448 <module_stop+0x38>
     494:	8fbf0004 	lw	ra,4(sp)
     498:	5040ffec 	beqzl	v0,44c <module_stop+0x3c>
     49c:	00001021 	move	v0,zero
     4a0:	90490008 	lbu	t1,8(v0)
     4a4:	8c480010 	lw	t0,16(v0)
     4a8:	1120ffe7 	beqz	t1,448 <module_stop+0x38>
     4ac:	8c4a000c 	lw	t2,12(v0)
     4b0:	3c0b0000 	lui	t3,0x0
     4b4:	3c060000 	lui	a2,0x0
     4b8:	01403821 	move	a3,t2
     4bc:	256b58cc 	addiu	t3,t3,22732
     4c0:	24c6592c 	addiu	a2,a2,22828
     4c4:	3c0c8002 	lui	t4,0x8002
     4c8:	3c0d0800 	lui	t5,0x800
     4cc:	8ce50000 	lw	a1,0(a3)
     4d0:	08000138 	j	4e0 <module_stop+0xd0>
     4d4:	01601821 	move	v1,t3
     4d8:	5066000f 	beql	v1,a2,518 <module_stop+0x108>
     4dc:	00091880 	sll	v1,t1,0x2
     4e0:	8c640000 	lw	a0,0(v1)
     4e4:	5485fffc 	bnel	a0,a1,4d8 <module_stop+0xc8>
     4e8:	2463000c 	addiu	v1,v1,12
     4ec:	8c640004 	lw	a0,4(v1)
     4f0:	1080fff9 	beqz	a0,4d8 <module_stop+0xc8>
     4f4:	2463000c 	addiu	v1,v1,12
     4f8:	30850003 	andi	a1,a0,0x3
     4fc:	14a00003 	bnez	a1,50c <module_stop+0xfc>
     500:	2583006a 	addiu	v1,t4,106
     504:	7c83c880 	ext	v1,a0,0x2,0x1a
     508:	006d1825 	or	v1,v1,t5
     50c:	ad030000 	sw	v1,0(t0)
     510:	90490008 	lbu	t1,8(v0)
     514:	00091880 	sll	v1,t1,0x2
     518:	24e70004 	addiu	a3,a3,4
     51c:	01431821 	addu	v1,t2,v1
     520:	14e3ffea 	bne	a3,v1,4cc <module_stop+0xbc>
     524:	25080004 	addiu	t0,t0,4
     528:	08000112 	j	448 <module_stop+0x38>
     52c:	8fbf0004 	lw	ra,4(sp)

00000530 <cupIoThread>:
     530:	27bdffd8 	addiu	sp,sp,-40
     534:	00a02021 	move	a0,a1
     538:	afbf0024 	sw	ra,36(sp)
     53c:	afbe0020 	sw	s8,32(sp)
     540:	afb7001c 	sw	s7,28(sp)
     544:	afb60018 	sw	s6,24(sp)
     548:	afb50014 	sw	s5,20(sp)
     54c:	afb40010 	sw	s4,16(sp)
     550:	afb3000c 	sw	s3,12(sp)
     554:	afb20008 	sw	s2,8(sp)
     558:	afb10004 	sw	s1,4(sp)
     55c:	0c0012ce 	jal	4b38 <sceIoChdir>
     560:	afb00000 	sw	s0,0(sp)
     564:	1040000d 	beqz	v0,59c <cupIoThread+0x6c>
     568:	3c120000 	lui	s2,0x0
     56c:	8fbf0024 	lw	ra,36(sp)
     570:	8fbe0020 	lw	s8,32(sp)
     574:	8fb7001c 	lw	s7,28(sp)
     578:	8fb60018 	lw	s6,24(sp)
     57c:	8fb50014 	lw	s5,20(sp)
     580:	8fb40010 	lw	s4,16(sp)
     584:	8fb3000c 	lw	s3,12(sp)
     588:	8fb20008 	lw	s2,8(sp)
     58c:	8fb10004 	lw	s1,4(sp)
     590:	8fb00000 	lw	s0,0(sp)
     594:	03e00008 	jr	ra
     598:	27bd0028 	addiu	sp,sp,40
     59c:	3c160000 	lui	s6,0x0
     5a0:	3c170000 	lui	s7,0x0
     5a4:	2410ffff 	li	s0,-1
     5a8:	3c110000 	lui	s1,0x0
     5ac:	0240f021 	move	s8,s2
     5b0:	26d65bc8 	addiu	s6,s6,23496
     5b4:	2415ffff 	li	s5,-1
     5b8:	26f74d38 	addiu	s7,s7,19768
     5bc:	0c0012d8 	jal	4b60 <sceKernelSleepThread>
     5c0:	00000000 	nop
     5c4:	8e465ba0 	lw	a2,23456(s2)
     5c8:	10c0000b 	beqz	a2,5f8 <cupIoThread+0xc8>
     5cc:	8e335ba8 	lw	s3,23464(s1)
     5d0:	06000025 	bltz	s0,668 <cupIoThread+0x138>
     5d4:	02e02021 	move	a0,s7
     5d8:	02002021 	move	a0,s0
     5dc:	0c0012cc 	jal	4b30 <sceIoWrite>
     5e0:	02c02821 	move	a1,s6
     5e4:	02002021 	move	a0,s0
     5e8:	0c0012c6 	jal	4b18 <sceIoClose>
     5ec:	ae405ba0 	sw	zero,23456(s2)
     5f0:	02a2800a 	movz	s0,s5,v0
     5f4:	8e335ba8 	lw	s3,23464(s1)
     5f8:	1260fff0 	beqz	s3,5bc <cupIoThread+0x8c>
     5fc:	2673000c 	addiu	s3,s3,12
     600:	02602021 	move	a0,s3
     604:	24050602 	li	a1,1538
     608:	0c0012c8 	jal	4b20 <sceIoOpen>
     60c:	240601ff 	li	a2,511
     610:	0040a021 	move	s4,v0
     614:	0440000b 	bltz	v0,644 <cupIoThread+0x114>
     618:	02602021 	move	a0,s3
     61c:	0c0005ab 	jal	16ac <strlen>
     620:	00000000 	nop
     624:	8e235ba8 	lw	v1,23464(s1)
     628:	24420001 	addiu	v0,v0,1
     62c:	02802021 	move	a0,s4
     630:	8c660008 	lw	a2,8(v1)
     634:	0c0012cc 	jal	4b30 <sceIoWrite>
     638:	02622821 	addu	a1,s3,v0
     63c:	0c0012c6 	jal	4b18 <sceIoClose>
     640:	02802021 	move	a0,s4
     644:	8e225ba8 	lw	v0,23464(s1)
     648:	0c0012d4 	jal	4b50 <sceKernelFreePartitionMemory>
     64c:	8c440004 	lw	a0,4(v0)
     650:	8e225ba8 	lw	v0,23464(s1)
     654:	8c530000 	lw	s3,0(v0)
     658:	1260ffd8 	beqz	s3,5bc <cupIoThread+0x8c>
     65c:	ae335ba8 	sw	s3,23464(s1)
     660:	08000180 	j	600 <cupIoThread+0xd0>
     664:	2673000c 	addiu	s3,s3,12
     668:	24050302 	li	a1,770
     66c:	0c0012c8 	jal	4b20 <sceIoOpen>
     670:	240601ff 	li	a2,511
     674:	0440ffdf 	bltz	v0,5f4 <cupIoThread+0xc4>
     678:	00408021 	move	s0,v0
     67c:	08000176 	j	5d8 <cupIoThread+0xa8>
     680:	8fc65ba0 	lw	a2,23456(s8)

00000684 <logTime>:
     684:	27bdffe0 	addiu	sp,sp,-32
     688:	03a02021 	move	a0,sp
     68c:	afb00014 	sw	s0,20(sp)
     690:	afbf001c 	sw	ra,28(sp)
     694:	0c0012c4 	jal	4b10 <sceRtcGetCurrentClockLocalTime>
     698:	afb10018 	sw	s1,24(sp)
     69c:	1440000f 	bnez	v0,6dc <logTime+0x58>
     6a0:	00408021 	move	s0,v0
     6a4:	3c110000 	lui	s1,0x0
     6a8:	8e225ba0 	lw	v0,23456(s1)
     6ac:	97a60008 	lhu	a2,8(sp)
     6b0:	97a7000a 	lhu	a3,10(sp)
     6b4:	8fa8000c 	lw	t0,12(sp)
     6b8:	3c040000 	lui	a0,0x0
     6bc:	24845bc8 	addiu	a0,a0,23496
     6c0:	3c050000 	lui	a1,0x0
     6c4:	00822021 	addu	a0,a0,v0
     6c8:	0c00055b 	jal	156c <sprintf>
     6cc:	24a54d40 	addiu	a1,a1,19776
     6d0:	8e235ba0 	lw	v1,23456(s1)
     6d4:	00431021 	addu	v0,v0,v1
     6d8:	ae225ba0 	sw	v0,23456(s1)
     6dc:	8fbf001c 	lw	ra,28(sp)
     6e0:	02001021 	move	v0,s0
     6e4:	8fb10018 	lw	s1,24(sp)
     6e8:	8fb00014 	lw	s0,20(sp)
     6ec:	03e00008 	jr	ra
     6f0:	27bd0020 	addiu	sp,sp,32

000006f4 <logPuts>:
     6f4:	27bdfff0 	addiu	sp,sp,-16
     6f8:	10800021 	beqz	a0,780 <logPuts+0x8c>
     6fc:	afbf000c 	sw	ra,12(sp)
     700:	0c0001a1 	jal	684 <logTime>
     704:	afa40000 	sw	a0,0(sp)
     708:	8fa40000 	lw	a0,0(sp)
     70c:	3c060000 	lui	a2,0x0
     710:	80830000 	lb	v1,0(a0)
     714:	10600013 	beqz	v1,764 <logPuts+0x70>
     718:	8cc75ba0 	lw	a3,23456(a2)
     71c:	2ce20100 	sltiu	v0,a3,256
     720:	10400010 	beqz	v0,764 <logPuts+0x70>
     724:	3c050000 	lui	a1,0x0
     728:	24a55bc8 	addiu	a1,a1,23496
     72c:	00e01021 	move	v0,a3
     730:	00a72821 	addu	a1,a1,a3
     734:	00872023 	subu	a0,a0,a3
     738:	080001d2 	j	748 <logPuts+0x54>
     73c:	24070100 	li	a3,256
     740:	50470009 	beql	v0,a3,768 <logPuts+0x74>
     744:	3c020000 	lui	v0,0x0
     748:	24420001 	addiu	v0,v0,1
     74c:	a0a30000 	sb	v1,0(a1)
     750:	acc25ba0 	sw	v0,23456(a2)
     754:	00821821 	addu	v1,a0,v0
     758:	80630000 	lb	v1,0(v1)
     75c:	1460fff8 	bnez	v1,740 <logPuts+0x4c>
     760:	24a50001 	addiu	a1,a1,1
     764:	3c020000 	lui	v0,0x0
     768:	0c0012da 	jal	4b68 <sceKernelWakeupThread>
     76c:	8c445ba4 	lw	a0,23460(v0)
     770:	00001021 	move	v0,zero
     774:	8fbf000c 	lw	ra,12(sp)
     778:	03e00008 	jr	ra
     77c:	27bd0010 	addiu	sp,sp,16
     780:	3c028002 	lui	v0,0x8002
     784:	080001dd 	j	774 <logPuts+0x80>
     788:	2442006a 	addiu	v0,v0,106

0000078c <logPrintf>:
     78c:	27bdffc8 	addiu	sp,sp,-56
     790:	afb0000c 	sw	s0,12(sp)
     794:	afbf0014 	sw	ra,20(sp)
     798:	afb10010 	sw	s1,16(sp)
     79c:	00808021 	move	s0,a0
     7a0:	afa5001c 	sw	a1,28(sp)
     7a4:	afa60020 	sw	a2,32(sp)
     7a8:	afa70024 	sw	a3,36(sp)
     7ac:	afa80028 	sw	t0,40(sp)
     7b0:	afa9002c 	sw	t1,44(sp)
     7b4:	afaa0030 	sw	t2,48(sp)
     7b8:	1080001c 	beqz	a0,82c <logPrintf+0xa0>
     7bc:	afab0034 	sw	t3,52(sp)
     7c0:	0c0001a1 	jal	684 <logTime>
     7c4:	3c110000 	lui	s1,0x0
     7c8:	8e235ba0 	lw	v1,23456(s1)
     7cc:	3c040000 	lui	a0,0x0
     7d0:	27a2001c 	addiu	v0,sp,28
     7d4:	24845bc8 	addiu	a0,a0,23496
     7d8:	24050100 	li	a1,256
     7dc:	02003021 	move	a2,s0
     7e0:	00832021 	addu	a0,a0,v1
     7e4:	00a32823 	subu	a1,a1,v1
     7e8:	00403821 	move	a3,v0
     7ec:	0c00054c 	jal	1530 <vsnprintf>
     7f0:	afa20000 	sw	v0,0(sp)
     7f4:	18400004 	blez	v0,808 <logPrintf+0x7c>
     7f8:	00408021 	move	s0,v0
     7fc:	8e225ba0 	lw	v0,23456(s1)
     800:	02021021 	addu	v0,s0,v0
     804:	ae225ba0 	sw	v0,23456(s1)
     808:	3c020000 	lui	v0,0x0
     80c:	0c0012da 	jal	4b68 <sceKernelWakeupThread>
     810:	8c445ba4 	lw	a0,23460(v0)
     814:	8fbf0014 	lw	ra,20(sp)
     818:	02001021 	move	v0,s0
     81c:	8fb10010 	lw	s1,16(sp)
     820:	8fb0000c 	lw	s0,12(sp)
     824:	03e00008 	jr	ra
     828:	27bd0038 	addiu	sp,sp,56
     82c:	3c108002 	lui	s0,0x8002
     830:	08000205 	j	814 <logPrintf+0x88>
     834:	2610006a 	addiu	s0,s0,106

00000838 <cupIoInit>:
     838:	27bdfff0 	addiu	sp,sp,-16
     83c:	afb10004 	sw	s1,4(sp)
     840:	afb00000 	sw	s0,0(sp)
     844:	00808821 	move	s1,a0
     848:	00a08021 	move	s0,a1
     84c:	3c040000 	lui	a0,0x0
     850:	3c050000 	lui	a1,0x0
     854:	24844d54 	addiu	a0,a0,19796
     858:	24a50530 	addiu	a1,a1,1328
     85c:	24060010 	li	a2,16
     860:	24070800 	li	a3,2048
     864:	00004021 	move	t0,zero
     868:	00004821 	move	t1,zero
     86c:	afbf000c 	sw	ra,12(sp)
     870:	0c0012dc 	jal	4b70 <sceKernelCreateThread>
     874:	afb20008 	sw	s2,8(sp)
     878:	04400012 	bltz	v0,8c4 <cupIoInit+0x8c>
     87c:	02003021 	move	a2,s0
     880:	3c120000 	lui	s2,0x0
     884:	00402021 	move	a0,v0
     888:	02202821 	move	a1,s1
     88c:	0c0012e0 	jal	4b80 <sceKernelStartThread>
     890:	ae425ba4 	sw	v0,23460(s2)
     894:	14400014 	bnez	v0,8e8 <cupIoInit+0xb0>
     898:	00408021 	move	s0,v0
     89c:	3c040000 	lui	a0,0x0
     8a0:	0c0001e3 	jal	78c <logPrintf>
     8a4:	24844d60 	addiu	a0,a0,19808
     8a8:	8fbf000c 	lw	ra,12(sp)
     8ac:	02001021 	move	v0,s0
     8b0:	8fb20008 	lw	s2,8(sp)
     8b4:	8fb10004 	lw	s1,4(sp)
     8b8:	8fb00000 	lw	s0,0(sp)
     8bc:	03e00008 	jr	ra
     8c0:	27bd0010 	addiu	sp,sp,16
     8c4:	3c020000 	lui	v0,0x0
     8c8:	8c505ba4 	lw	s0,23460(v0)
     8cc:	8fbf000c 	lw	ra,12(sp)
     8d0:	8fb20008 	lw	s2,8(sp)
     8d4:	02001021 	move	v0,s0
     8d8:	8fb10004 	lw	s1,4(sp)
     8dc:	8fb00000 	lw	s0,0(sp)
     8e0:	03e00008 	jr	ra
     8e4:	27bd0010 	addiu	sp,sp,16
     8e8:	0c0012de 	jal	4b78 <sceKernelDeleteThread>
     8ec:	8e445ba4 	lw	a0,23460(s2)
     8f0:	08000228 	j	8a0 <cupIoInit+0x68>
     8f4:	3c040000 	lui	a0,0x0

000008f8 <cupIoDeinit>:
     8f8:	3c020000 	lui	v0,0x0
     8fc:	8c445ba4 	lw	a0,23460(v0)
     900:	14800003 	bnez	a0,910 <cupIoDeinit+0x18>
     904:	00001021 	move	v0,zero
     908:	03e00008 	jr	ra
     90c:	00000000 	nop
     910:	080012e4 	j	4b90 <sceKernelTerminateDeleteThread>
     914:	00000000 	nop

00000918 <cupIoWrite>:
     918:	27bdffd8 	addiu	sp,sp,-40
     91c:	afb2001c 	sw	s2,28(sp)
     920:	afb10018 	sw	s1,24(sp)
     924:	afb00014 	sw	s0,20(sp)
     928:	afbf0024 	sw	ra,36(sp)
     92c:	afb30020 	sw	s3,32(sp)
     930:	00808821 	move	s1,a0
     934:	00a09021 	move	s2,a1
     938:	10800038 	beqz	a0,a1c <cupIoWrite+0x104>
     93c:	00c08021 	move	s0,a2
     940:	10a00037 	beqz	a1,a20 <cupIoWrite+0x108>
     944:	3c138002 	lui	s3,0x8002
     948:	0c0005ab 	jal	16ac <strlen>
     94c:	00000000 	nop
     950:	2607001c 	addiu	a3,s0,28
     954:	3c050000 	lui	a1,0x0
     958:	24040001 	li	a0,1
     95c:	24a54d74 	addiu	a1,a1,19828
     960:	00003021 	move	a2,zero
     964:	00e23821 	addu	a3,a3,v0
     968:	0c0012d2 	jal	4b48 <sceKernelAllocPartitionMemory>
     96c:	00004021 	move	t0,zero
     970:	0440001e 	bltz	v0,9ec <cupIoWrite+0xd4>
     974:	00409821 	move	s3,v0
     978:	0c0012d6 	jal	4b58 <sceKernelGetBlockHeadAddr>
     97c:	00402021 	move	a0,v0
     980:	10400022 	beqz	v0,a0c <cupIoWrite+0xf4>
     984:	3c030000 	lui	v1,0x0
     988:	8c645ba8 	lw	a0,23464(v1)
     98c:	ac530004 	sw	s3,4(v0)
     990:	ac500008 	sw	s0,8(v0)
     994:	ac440000 	sw	a0,0(v0)
     998:	03a02021 	move	a0,sp
     99c:	2453000c 	addiu	s3,v0,12
     9a0:	0c0012c4 	jal	4b10 <sceRtcGetCurrentClockLocalTime>
     9a4:	ac625ba8 	sw	v0,23464(v1)
     9a8:	97a70008 	lhu	a3,8(sp)
     9ac:	97a8000a 	lhu	t0,10(sp)
     9b0:	8fa9000c 	lw	t1,12(sp)
     9b4:	3c050000 	lui	a1,0x0
     9b8:	02602021 	move	a0,s3
     9bc:	24a54d7c 	addiu	a1,a1,19836
     9c0:	0c00055b 	jal	156c <sprintf>
     9c4:	02203021 	move	a2,s1
     9c8:	24420001 	addiu	v0,v0,1
     9cc:	02622021 	addu	a0,s3,v0
     9d0:	02402821 	move	a1,s2
     9d4:	0c000587 	jal	161c <memcpy>
     9d8:	02003021 	move	a2,s0
     9dc:	3c020000 	lui	v0,0x0
     9e0:	8c445ba4 	lw	a0,23460(v0)
     9e4:	0c0012da 	jal	4b68 <sceKernelWakeupThread>
     9e8:	00009821 	move	s3,zero
     9ec:	8fbf0024 	lw	ra,36(sp)
     9f0:	02601021 	move	v0,s3
     9f4:	8fb2001c 	lw	s2,28(sp)
     9f8:	8fb30020 	lw	s3,32(sp)
     9fc:	8fb10018 	lw	s1,24(sp)
     a00:	8fb00014 	lw	s0,20(sp)
     a04:	03e00008 	jr	ra
     a08:	27bd0028 	addiu	sp,sp,40
     a0c:	0c0012d4 	jal	4b50 <sceKernelFreePartitionMemory>
     a10:	02602021 	move	a0,s3
     a14:	0800027b 	j	9ec <cupIoWrite+0xd4>
     a18:	00409821 	move	s3,v0
     a1c:	3c138002 	lui	s3,0x8002
     a20:	0800027b 	j	9ec <cupIoWrite+0xd4>
     a24:	267300d3 	addiu	s3,s3,211

00000a28 <hookUsbbdStall>:
     a28:	27bdfff0 	addiu	sp,sp,-16
     a2c:	afb00004 	sw	s0,4(sp)
     a30:	afbf000c 	sw	ra,12(sp)
     a34:	afb10008 	sw	s1,8(sp)
     a38:	10800017 	beqz	a0,a98 <hookUsbbdStall+0x70>
     a3c:	00808021 	move	s0,a0
     a40:	8c860000 	lw	a2,0(a0)
     a44:	3c110000 	lui	s1,0x0
     a48:	3c040000 	lui	a0,0x0
     a4c:	26254da4 	addiu	a1,s1,19876
     a50:	0c0001e3 	jal	78c <logPrintf>
     a54:	24844d90 	addiu	a0,a0,19856
     a58:	3c020000 	lui	v0,0x0
     a5c:	8c425924 	lw	v0,22820(v0)
     a60:	0040f809 	jalr	v0
     a64:	02002021 	move	a0,s0
     a68:	3c040000 	lui	a0,0x0
     a6c:	24844dbc 	addiu	a0,a0,19900
     a70:	26254da4 	addiu	a1,s1,19876
     a74:	00403021 	move	a2,v0
     a78:	0c0001e3 	jal	78c <logPrintf>
     a7c:	00408021 	move	s0,v0
     a80:	8fbf000c 	lw	ra,12(sp)
     a84:	02001021 	move	v0,s0
     a88:	8fb10008 	lw	s1,8(sp)
     a8c:	8fb00004 	lw	s0,4(sp)
     a90:	03e00008 	jr	ra
     a94:	27bd0010 	addiu	sp,sp,16
     a98:	3c108002 	lui	s0,0x8002
     a9c:	080002a0 	j	a80 <hookUsbbdStall+0x58>
     aa0:	2610006a 	addiu	s0,s0,106

00000aa4 <hookUsbbdReqCancelAll>:
     aa4:	27bdfff0 	addiu	sp,sp,-16
     aa8:	afb00004 	sw	s0,4(sp)
     aac:	afbf000c 	sw	ra,12(sp)
     ab0:	afb10008 	sw	s1,8(sp)
     ab4:	10800017 	beqz	a0,b14 <hookUsbbdReqCancelAll+0x70>
     ab8:	00808021 	move	s0,a0
     abc:	8c860000 	lw	a2,0(a0)
     ac0:	3c110000 	lui	s1,0x0
     ac4:	3c040000 	lui	a0,0x0
     ac8:	26254da4 	addiu	a1,s1,19876
     acc:	0c0001e3 	jal	78c <logPrintf>
     ad0:	24844d90 	addiu	a0,a0,19856
     ad4:	3c020000 	lui	v0,0x0
     ad8:	8c425918 	lw	v0,22808(v0)
     adc:	0040f809 	jalr	v0
     ae0:	02002021 	move	a0,s0
     ae4:	3c040000 	lui	a0,0x0
     ae8:	24844dbc 	addiu	a0,a0,19900
     aec:	26254da4 	addiu	a1,s1,19876
     af0:	00403021 	move	a2,v0
     af4:	0c0001e3 	jal	78c <logPrintf>
     af8:	00408021 	move	s0,v0
     afc:	8fbf000c 	lw	ra,12(sp)
     b00:	02001021 	move	v0,s0
     b04:	8fb10008 	lw	s1,8(sp)
     b08:	8fb00004 	lw	s0,4(sp)
     b0c:	03e00008 	jr	ra
     b10:	27bd0010 	addiu	sp,sp,16
     b14:	3c108002 	lui	s0,0x8002
     b18:	080002bf 	j	afc <hookUsbbdReqCancelAll+0x58>
     b1c:	2610006a 	addiu	s0,s0,106

00000b20 <hookUsbGetState>:
     b20:	27bdfff0 	addiu	sp,sp,-16
     b24:	afb00004 	sw	s0,4(sp)
     b28:	afbf000c 	sw	ra,12(sp)
     b2c:	afb10008 	sw	s1,8(sp)
     b30:	00808021 	move	s0,a0
     b34:	10800016 	beqz	a0,b90 <hookUsbGetState+0x70>
     b38:	00803021 	move	a2,a0
     b3c:	3c110000 	lui	s1,0x0
     b40:	3c040000 	lui	a0,0x0
     b44:	26254df4 	addiu	a1,s1,19956
     b48:	0c0001e3 	jal	78c <logPrintf>
     b4c:	24844ddc 	addiu	a0,a0,19932
     b50:	3c020000 	lui	v0,0x0
     b54:	8c42590c 	lw	v0,22796(v0)
     b58:	0040f809 	jalr	v0
     b5c:	02002021 	move	a0,s0
     b60:	3c040000 	lui	a0,0x0
     b64:	26254df4 	addiu	a1,s1,19956
     b68:	24844dbc 	addiu	a0,a0,19900
     b6c:	00403021 	move	a2,v0
     b70:	0c0001e3 	jal	78c <logPrintf>
     b74:	00408021 	move	s0,v0
     b78:	8fbf000c 	lw	ra,12(sp)
     b7c:	02001021 	move	v0,s0
     b80:	8fb10008 	lw	s1,8(sp)
     b84:	8fb00004 	lw	s0,4(sp)
     b88:	03e00008 	jr	ra
     b8c:	27bd0010 	addiu	sp,sp,16
     b90:	3c060000 	lui	a2,0x0
     b94:	080002cf 	j	b3c <hookUsbGetState+0x1c>
     b98:	24c64dd4 	addiu	a2,a2,19924

00000b9c <hookUsbbdUnregister>:
     b9c:	8c860000 	lw	a2,0(a0)
     ba0:	27bdfff0 	addiu	sp,sp,-16
     ba4:	afb00004 	sw	s0,4(sp)
     ba8:	afbf000c 	sw	ra,12(sp)
     bac:	afb10008 	sw	s1,8(sp)
     bb0:	10c00016 	beqz	a2,c0c <hookUsbbdUnregister+0x70>
     bb4:	00808021 	move	s0,a0
     bb8:	3c110000 	lui	s1,0x0
     bbc:	3c040000 	lui	a0,0x0
     bc0:	26254e14 	addiu	a1,s1,19988
     bc4:	0c0001e3 	jal	78c <logPrintf>
     bc8:	24844e04 	addiu	a0,a0,19972
     bcc:	3c020000 	lui	v0,0x0
     bd0:	8c425900 	lw	v0,22784(v0)
     bd4:	0040f809 	jalr	v0
     bd8:	02002021 	move	a0,s0
     bdc:	3c040000 	lui	a0,0x0
     be0:	26254e14 	addiu	a1,s1,19988
     be4:	24844dbc 	addiu	a0,a0,19900
     be8:	00403021 	move	a2,v0
     bec:	0c0001e3 	jal	78c <logPrintf>
     bf0:	00408021 	move	s0,v0
     bf4:	8fbf000c 	lw	ra,12(sp)
     bf8:	02001021 	move	v0,s0
     bfc:	8fb10008 	lw	s1,8(sp)
     c00:	8fb00004 	lw	s0,4(sp)
     c04:	03e00008 	jr	ra
     c08:	27bd0010 	addiu	sp,sp,16
     c0c:	3c060000 	lui	a2,0x0
     c10:	080002ee 	j	bb8 <hookUsbbdUnregister+0x1c>
     c14:	24c64dd4 	addiu	a2,a2,19924

00000c18 <dumpDev>:
     c18:	27bdfff0 	addiu	sp,sp,-16
     c1c:	afb10008 	sw	s1,8(sp)
     c20:	afb00004 	sw	s0,4(sp)
     c24:	afbf000c 	sw	ra,12(sp)
     c28:	00808821 	move	s1,a0
     c2c:	00a01021 	move	v0,a1
     c30:	10800073 	beqz	a0,e00 <dumpDev+0x1e8>
     c34:	00c08021 	move	s0,a2
     c38:	50a00072 	beqzl	a1,e04 <dumpDev+0x1ec>
     c3c:	3c028002 	lui	v0,0x8002
     c40:	10c0006f 	beqz	a2,e00 <dumpDev+0x1e8>
     c44:	3c040000 	lui	a0,0x0
     c48:	24844e30 	addiu	a0,a0,20016
     c4c:	02202821 	move	a1,s1
     c50:	0c0001e3 	jal	78c <logPrintf>
     c54:	00403021 	move	a2,v0
     c58:	92070001 	lbu	a3,1(s0)
     c5c:	00001021 	move	v0,zero
     c60:	92060000 	lbu	a2,0(s0)
     c64:	2ce30006 	sltiu	v1,a3,6
     c68:	00e3100b 	movn	v0,a3,v1
     c6c:	00021880 	sll	v1,v0,0x2
     c70:	3c020000 	lui	v0,0x0
     c74:	24425424 	addiu	v0,v0,21540
     c78:	00621021 	addu	v0,v1,v0
     c7c:	8c480000 	lw	t0,0(v0)
     c80:	3c040000 	lui	a0,0x0
     c84:	24844e48 	addiu	a0,a0,20040
     c88:	0c0001e3 	jal	78c <logPrintf>
     c8c:	02202821 	move	a1,s1
     c90:	92060003 	lbu	a2,3(s0)
     c94:	92020002 	lbu	v0,2(s0)
     c98:	3c040000 	lui	a0,0x0
     c9c:	00063200 	sll	a2,a2,0x8
     ca0:	00c23025 	or	a2,a2,v0
     ca4:	24844e78 	addiu	a0,a0,20088
     ca8:	0c0001e3 	jal	78c <logPrintf>
     cac:	02202821 	move	a1,s1
     cb0:	92060004 	lbu	a2,4(s0)
     cb4:	10c0004e 	beqz	a2,df0 <dumpDev+0x1d8>
     cb8:	3c040000 	lui	a0,0x0
     cbc:	2484543c 	addiu	a0,a0,21564
     cc0:	3c070000 	lui	a3,0x0
     cc4:	3c050000 	lui	a1,0x0
     cc8:	00801021 	move	v0,a0
     ccc:	24e75474 	addiu	a3,a3,21620
     cd0:	08000339 	j	ce4 <dumpDev+0xcc>
     cd4:	24a55444 	addiu	a1,a1,21572
     cd8:	9063fff8 	lbu	v1,-8(v1)
     cdc:	50c30007 	beql	a2,v1,cfc <dumpDev+0xe4>
     ce0:	8c470004 	lw	a3,4(v0)
     ce4:	24420008 	addiu	v0,v0,8
     ce8:	00441823 	subu	v1,v0,a0
     cec:	1447fffa 	bne	v0,a3,cd8 <dumpDev+0xc0>
     cf0:	00a31821 	addu	v1,a1,v1
     cf4:	3c070000 	lui	a3,0x0
     cf8:	24e74e28 	addiu	a3,a3,20008
     cfc:	92080005 	lbu	t0,5(s0)
     d00:	3c040000 	lui	a0,0x0
     d04:	24844e90 	addiu	a0,a0,20112
     d08:	0c0001e3 	jal	78c <logPrintf>
     d0c:	02202821 	move	a1,s1
     d10:	92060006 	lbu	a2,6(s0)
     d14:	3c040000 	lui	a0,0x0
     d18:	24844ecc 	addiu	a0,a0,20172
     d1c:	0c0001e3 	jal	78c <logPrintf>
     d20:	02202821 	move	a1,s1
     d24:	92060007 	lbu	a2,7(s0)
     d28:	3c040000 	lui	a0,0x0
     d2c:	24844eec 	addiu	a0,a0,20204
     d30:	0c0001e3 	jal	78c <logPrintf>
     d34:	02202821 	move	a1,s1
     d38:	92060009 	lbu	a2,9(s0)
     d3c:	9207000b 	lbu	a3,11(s0)
     d40:	9203000a 	lbu	v1,10(s0)
     d44:	92020008 	lbu	v0,8(s0)
     d48:	00063200 	sll	a2,a2,0x8
     d4c:	00073a00 	sll	a3,a3,0x8
     d50:	3c040000 	lui	a0,0x0
     d54:	00e33825 	or	a3,a3,v1
     d58:	24844f08 	addiu	a0,a0,20232
     d5c:	02202821 	move	a1,s1
     d60:	0c0001e3 	jal	78c <logPrintf>
     d64:	00c23025 	or	a2,a2,v0
     d68:	9206000d 	lbu	a2,13(s0)
     d6c:	9202000c 	lbu	v0,12(s0)
     d70:	3c040000 	lui	a0,0x0
     d74:	00063200 	sll	a2,a2,0x8
     d78:	24844f34 	addiu	a0,a0,20276
     d7c:	02202821 	move	a1,s1
     d80:	0c0001e3 	jal	78c <logPrintf>
     d84:	00c23025 	or	a2,a2,v0
     d88:	9206000e 	lbu	a2,14(s0)
     d8c:	3c040000 	lui	a0,0x0
     d90:	24844f50 	addiu	a0,a0,20304
     d94:	0c0001e3 	jal	78c <logPrintf>
     d98:	02202821 	move	a1,s1
     d9c:	9206000f 	lbu	a2,15(s0)
     da0:	3c040000 	lui	a0,0x0
     da4:	24844f6c 	addiu	a0,a0,20332
     da8:	0c0001e3 	jal	78c <logPrintf>
     dac:	02202821 	move	a1,s1
     db0:	92060010 	lbu	a2,16(s0)
     db4:	3c040000 	lui	a0,0x0
     db8:	24844f80 	addiu	a0,a0,20352
     dbc:	0c0001e3 	jal	78c <logPrintf>
     dc0:	02202821 	move	a1,s1
     dc4:	92060011 	lbu	a2,17(s0)
     dc8:	3c040000 	lui	a0,0x0
     dcc:	24844f9c 	addiu	a0,a0,20380
     dd0:	0c0001e3 	jal	78c <logPrintf>
     dd4:	02202821 	move	a1,s1
     dd8:	00001021 	move	v0,zero
     ddc:	8fbf000c 	lw	ra,12(sp)
     de0:	8fb10008 	lw	s1,8(sp)
     de4:	8fb00004 	lw	s0,4(sp)
     de8:	03e00008 	jr	ra
     dec:	27bd0010 	addiu	sp,sp,16
     df0:	3c020000 	lui	v0,0x0
     df4:	2442543c 	addiu	v0,v0,21564
     df8:	0800033f 	j	cfc <dumpDev+0xe4>
     dfc:	8c470004 	lw	a3,4(v0)
     e00:	3c028002 	lui	v0,0x8002
     e04:	08000377 	j	ddc <dumpDev+0x1c4>
     e08:	2442006a 	addiu	v0,v0,106

00000e0c <dumpConf>:
     e0c:	27bdffc0 	addiu	sp,sp,-64
     e10:	afb1001c 	sw	s1,28(sp)
     e14:	afbf003c 	sw	ra,60(sp)
     e18:	afbe0038 	sw	s8,56(sp)
     e1c:	afb70034 	sw	s7,52(sp)
     e20:	afb60030 	sw	s6,48(sp)
     e24:	afb5002c 	sw	s5,44(sp)
     e28:	afb40028 	sw	s4,40(sp)
     e2c:	afb30024 	sw	s3,36(sp)
     e30:	afb20020 	sw	s2,32(sp)
     e34:	afb00018 	sw	s0,24(sp)
     e38:	00808821 	move	s1,a0
     e3c:	afa5000c 	sw	a1,12(sp)
     e40:	108000c3 	beqz	a0,1150 <dumpConf+0x344>
     e44:	afa70010 	sw	a3,16(sp)
     e48:	10a000c2 	beqz	a1,1154 <dumpConf+0x348>
     e4c:	8fbf003c 	lw	ra,60(sp)
     e50:	10c000c1 	beqz	a2,1158 <dumpConf+0x34c>
     e54:	3c028002 	lui	v0,0x8002
     e58:	10e000af 	beqz	a3,1118 <dumpConf+0x30c>
     e5c:	00001021 	move	v0,zero
     e60:	3c140000 	lui	s4,0x0
     e64:	00c08021 	move	s0,a2
     e68:	afa00008 	sw	zero,8(sp)
     e6c:	26945424 	addiu	s4,s4,21540
     e70:	8fa6000c 	lw	a2,12(sp)
     e74:	8fa70008 	lw	a3,8(sp)
     e78:	3c020000 	lui	v0,0x0
     e7c:	24444fbc 	addiu	a0,v0,20412
     e80:	0c0001e3 	jal	78c <logPrintf>
     e84:	02202821 	move	a1,s1
     e88:	92070001 	lbu	a3,1(s0)
     e8c:	3c030000 	lui	v1,0x0
     e90:	24644fe0 	addiu	a0,v1,20448
     e94:	2ce20006 	sltiu	v0,a3,6
     e98:	00001821 	move	v1,zero
     e9c:	00e2180b 	movn	v1,a3,v0
     ea0:	00031080 	sll	v0,v1,0x2
     ea4:	02821021 	addu	v0,s4,v0
     ea8:	8c480000 	lw	t0,0(v0)
     eac:	92060000 	lbu	a2,0(s0)
     eb0:	0c0001e3 	jal	78c <logPrintf>
     eb4:	02202821 	move	a1,s1
     eb8:	92060003 	lbu	a2,3(s0)
     ebc:	92020002 	lbu	v0,2(s0)
     ec0:	3c030000 	lui	v1,0x0
     ec4:	00063200 	sll	a2,a2,0x8
     ec8:	24645010 	addiu	a0,v1,20496
     ecc:	02202821 	move	a1,s1
     ed0:	0c0001e3 	jal	78c <logPrintf>
     ed4:	00c23025 	or	a2,a2,v0
     ed8:	92060004 	lbu	a2,4(s0)
     edc:	92070005 	lbu	a3,5(s0)
     ee0:	3c020000 	lui	v0,0x0
     ee4:	24445028 	addiu	a0,v0,20520
     ee8:	0c0001e3 	jal	78c <logPrintf>
     eec:	02202821 	move	a1,s1
     ef0:	92060006 	lbu	a2,6(s0)
     ef4:	3c030000 	lui	v1,0x0
     ef8:	2464505c 	addiu	a0,v1,20572
     efc:	0c0001e3 	jal	78c <logPrintf>
     f00:	02202821 	move	a1,s1
     f04:	92030004 	lbu	v1,4(s0)
     f08:	92020000 	lbu	v0,0(s0)
     f0c:	afa30004 	sw	v1,4(sp)
     f10:	1060007a 	beqz	v1,10fc <dumpConf+0x2f0>
     f14:	02028021 	addu	s0,s0,v0
     f18:	afa00000 	sw	zero,0(sp)
     f1c:	8fa60000 	lw	a2,0(sp)
     f20:	3c020000 	lui	v0,0x0
     f24:	24445078 	addiu	a0,v0,20600
     f28:	0c0001e3 	jal	78c <logPrintf>
     f2c:	02202821 	move	a1,s1
     f30:	92070001 	lbu	a3,1(s0)
     f34:	3c030000 	lui	v1,0x0
     f38:	24645094 	addiu	a0,v1,20628
     f3c:	2ce20006 	sltiu	v0,a3,6
     f40:	00001821 	move	v1,zero
     f44:	00e2180b 	movn	v1,a3,v0
     f48:	00031080 	sll	v0,v1,0x2
     f4c:	02821021 	addu	v0,s4,v0
     f50:	8c480000 	lw	t0,0(v0)
     f54:	92060000 	lbu	a2,0(s0)
     f58:	0c0001e3 	jal	78c <logPrintf>
     f5c:	02202821 	move	a1,s1
     f60:	92060002 	lbu	a2,2(s0)
     f64:	92070003 	lbu	a3,3(s0)
     f68:	3c020000 	lui	v0,0x0
     f6c:	244450c4 	addiu	a0,v0,20676
     f70:	0c0001e3 	jal	78c <logPrintf>
     f74:	02202821 	move	a1,s1
     f78:	92060004 	lbu	a2,4(s0)
     f7c:	3c030000 	lui	v1,0x0
     f80:	246450fc 	addiu	a0,v1,20732
     f84:	0c0001e3 	jal	78c <logPrintf>
     f88:	02202821 	move	a1,s1
     f8c:	92060005 	lbu	a2,5(s0)
     f90:	24020001 	li	v0,1
     f94:	10c2006b 	beq	a2,v0,1144 <dumpConf+0x338>
     f98:	3c020000 	lui	v0,0x0
     f9c:	080003eb 	j	fac <dumpConf+0x1a0>
     fa0:	24425474 	addiu	v0,v0,21620
     fa4:	50c3000e 	beql	a2,v1,fe0 <dumpConf+0x1d4>
     fa8:	8c470004 	lw	a3,4(v0)
     fac:	3c040000 	lui	a0,0x0
     fb0:	24845474 	addiu	a0,a0,21620
     fb4:	24420008 	addiu	v0,v0,8
     fb8:	00441823 	subu	v1,v0,a0
     fbc:	3c040000 	lui	a0,0x0
     fc0:	2484547c 	addiu	a0,a0,21628
     fc4:	00831821 	addu	v1,a0,v1
     fc8:	3c040000 	lui	a0,0x0
     fcc:	248454f4 	addiu	a0,a0,21748
     fd0:	5444fff4 	bnel	v0,a0,fa4 <dumpConf+0x198>
     fd4:	9063fff8 	lbu	v1,-8(v1)
     fd8:	3c020000 	lui	v0,0x0
     fdc:	24474e28 	addiu	a3,v0,20008
     fe0:	92080006 	lbu	t0,6(s0)
     fe4:	3c030000 	lui	v1,0x0
     fe8:	24645118 	addiu	a0,v1,20760
     fec:	0c0001e3 	jal	78c <logPrintf>
     ff0:	02202821 	move	a1,s1
     ff4:	92060007 	lbu	a2,7(s0)
     ff8:	3c020000 	lui	v0,0x0
     ffc:	24445154 	addiu	a0,v0,20820
    1000:	0c0001e3 	jal	78c <logPrintf>
    1004:	02202821 	move	a1,s1
    1008:	92060008 	lbu	a2,8(s0)
    100c:	3c030000 	lui	v1,0x0
    1010:	24645174 	addiu	a0,v1,20852
    1014:	0c0001e3 	jal	78c <logPrintf>
    1018:	02202821 	move	a1,s1
    101c:	92130004 	lbu	s3,4(s0)
    1020:	92020000 	lbu	v0,0(s0)
    1024:	1260002f 	beqz	s3,10e4 <dumpConf+0x2d8>
    1028:	02028021 	addu	s0,s0,v0
    102c:	3c040000 	lui	a0,0x0
    1030:	3c020000 	lui	v0,0x0
    1034:	3c160000 	lui	s6,0x0
    1038:	3c150000 	lui	s5,0x0
    103c:	00009021 	move	s2,zero
    1040:	249e5094 	addiu	s8,a0,20628
    1044:	245751a4 	addiu	s7,v0,20900
    1048:	26d651dc 	addiu	s6,s6,20956
    104c:	26b551f8 	addiu	s5,s5,20984
    1050:	3c040000 	lui	a0,0x0
    1054:	02403021 	move	a2,s2
    1058:	2484518c 	addiu	a0,a0,20876
    105c:	0c0001e3 	jal	78c <logPrintf>
    1060:	02202821 	move	a1,s1
    1064:	92070001 	lbu	a3,1(s0)
    1068:	00001821 	move	v1,zero
    106c:	92060000 	lbu	a2,0(s0)
    1070:	2ce20006 	sltiu	v0,a3,6
    1074:	00e2180b 	movn	v1,a3,v0
    1078:	00031080 	sll	v0,v1,0x2
    107c:	02821021 	addu	v0,s4,v0
    1080:	8c480000 	lw	t0,0(v0)
    1084:	03c02021 	move	a0,s8
    1088:	0c0001e3 	jal	78c <logPrintf>
    108c:	02202821 	move	a1,s1
    1090:	92070003 	lbu	a3,3(s0)
    1094:	92060002 	lbu	a2,2(s0)
    1098:	02e02021 	move	a0,s7
    109c:	0c0001e3 	jal	78c <logPrintf>
    10a0:	02202821 	move	a1,s1
    10a4:	92060005 	lbu	a2,5(s0)
    10a8:	92020004 	lbu	v0,4(s0)
    10ac:	02c02021 	move	a0,s6
    10b0:	00063200 	sll	a2,a2,0x8
    10b4:	00c23025 	or	a2,a2,v0
    10b8:	0c0001e3 	jal	78c <logPrintf>
    10bc:	02202821 	move	a1,s1
    10c0:	92060006 	lbu	a2,6(s0)
    10c4:	02a02021 	move	a0,s5
    10c8:	0c0001e3 	jal	78c <logPrintf>
    10cc:	02202821 	move	a1,s1
    10d0:	92030000 	lbu	v1,0(s0)
    10d4:	26520001 	addiu	s2,s2,1
    10d8:	0253102b 	sltu	v0,s2,s3
    10dc:	1440ffdc 	bnez	v0,1050 <dumpConf+0x244>
    10e0:	02038021 	addu	s0,s0,v1
    10e4:	8fa30000 	lw	v1,0(sp)
    10e8:	8fa40004 	lw	a0,4(sp)
    10ec:	24630001 	addiu	v1,v1,1
    10f0:	0064102b 	sltu	v0,v1,a0
    10f4:	1440ff89 	bnez	v0,f1c <dumpConf+0x110>
    10f8:	afa30000 	sw	v1,0(sp)
    10fc:	8fa30008 	lw	v1,8(sp)
    1100:	8fa40010 	lw	a0,16(sp)
    1104:	24630001 	addiu	v1,v1,1
    1108:	1464ff59 	bne	v1,a0,e70 <dumpConf+0x64>
    110c:	afa30008 	sw	v1,8(sp)
    1110:	00001021 	move	v0,zero
    1114:	8fbf003c 	lw	ra,60(sp)
    1118:	8fbe0038 	lw	s8,56(sp)
    111c:	8fb70034 	lw	s7,52(sp)
    1120:	8fb60030 	lw	s6,48(sp)
    1124:	8fb5002c 	lw	s5,44(sp)
    1128:	8fb40028 	lw	s4,40(sp)
    112c:	8fb30024 	lw	s3,36(sp)
    1130:	8fb20020 	lw	s2,32(sp)
    1134:	8fb1001c 	lw	s1,28(sp)
    1138:	8fb00018 	lw	s0,24(sp)
    113c:	03e00008 	jr	ra
    1140:	27bd0040 	addiu	sp,sp,64
    1144:	24425474 	addiu	v0,v0,21620
    1148:	080003f8 	j	fe0 <dumpConf+0x1d4>
    114c:	8c470004 	lw	a3,4(v0)
    1150:	8fbf003c 	lw	ra,60(sp)
    1154:	3c028002 	lui	v0,0x8002
    1158:	2442006a 	addiu	v0,v0,106
    115c:	8fbe0038 	lw	s8,56(sp)
    1160:	8fb70034 	lw	s7,52(sp)
    1164:	8fb60030 	lw	s6,48(sp)
    1168:	8fb5002c 	lw	s5,44(sp)
    116c:	8fb40028 	lw	s4,40(sp)
    1170:	8fb30024 	lw	s3,36(sp)
    1174:	8fb20020 	lw	s2,32(sp)
    1178:	8fb1001c 	lw	s1,28(sp)
    117c:	8fb00018 	lw	s0,24(sp)
    1180:	03e00008 	jr	ra
    1184:	27bd0040 	addiu	sp,sp,64

00001188 <hookUsbbdRegister>:
    1188:	27bdfff0 	addiu	sp,sp,-16
    118c:	afb00004 	sw	s0,4(sp)
    1190:	afbf000c 	sw	ra,12(sp)
    1194:	afb10008 	sw	s1,8(sp)
    1198:	10800043 	beqz	a0,12a8 <hookUsbbdRegister+0x120>
    119c:	00808021 	move	s0,a0
    11a0:	8c820010 	lw	v0,16(a0)
    11a4:	50400041 	beqzl	v0,12ac <hookUsbbdRegister+0x124>
    11a8:	3c108002 	lui	s0,0x8002
    11ac:	8c820014 	lw	v0,20(a0)
    11b0:	5040003e 	beqzl	v0,12ac <hookUsbbdRegister+0x124>
    11b4:	3c108002 	lui	s0,0x8002
    11b8:	8c820018 	lw	v0,24(a0)
    11bc:	5040003b 	beqzl	v0,12ac <hookUsbbdRegister+0x124>
    11c0:	3c108002 	lui	s0,0x8002
    11c4:	8c82001c 	lw	v0,28(a0)
    11c8:	50400038 	beqzl	v0,12ac <hookUsbbdRegister+0x124>
    11cc:	3c108002 	lui	s0,0x8002
    11d0:	8c820020 	lw	v0,32(a0)
    11d4:	50400035 	beqzl	v0,12ac <hookUsbbdRegister+0x124>
    11d8:	3c108002 	lui	s0,0x8002
    11dc:	8c860000 	lw	a2,0(a0)
    11e0:	50c0002f 	beqzl	a2,12a0 <hookUsbbdRegister+0x118>
    11e4:	3c060000 	lui	a2,0x0
    11e8:	8e070004 	lw	a3,4(s0)
    11ec:	3c110000 	lui	s1,0x0
    11f0:	3c040000 	lui	a0,0x0
    11f4:	24845210 	addiu	a0,a0,21008
    11f8:	0c0001e3 	jal	78c <logPrintf>
    11fc:	26255230 	addiu	a1,s1,21040
    1200:	8e060010 	lw	a2,16(s0)
    1204:	3c050000 	lui	a1,0x0
    1208:	26245230 	addiu	a0,s1,21040
    120c:	0c000306 	jal	c18 <dumpDev>
    1210:	24a55244 	addiu	a1,a1,21060
    1214:	8e020010 	lw	v0,16(s0)
    1218:	8e060014 	lw	a2,20(s0)
    121c:	3c050000 	lui	a1,0x0
    1220:	90470011 	lbu	a3,17(v0)
    1224:	26245230 	addiu	a0,s1,21040
    1228:	0c000383 	jal	e0c <dumpConf>
    122c:	24a55250 	addiu	a1,a1,21072
    1230:	8e060018 	lw	a2,24(s0)
    1234:	3c050000 	lui	a1,0x0
    1238:	26245230 	addiu	a0,s1,21040
    123c:	0c000306 	jal	c18 <dumpDev>
    1240:	24a55264 	addiu	a1,a1,21092
    1244:	8e020018 	lw	v0,24(s0)
    1248:	8e06001c 	lw	a2,28(s0)
    124c:	3c050000 	lui	a1,0x0
    1250:	90470011 	lbu	a3,17(v0)
    1254:	24a5526c 	addiu	a1,a1,21100
    1258:	0c000383 	jal	e0c <dumpConf>
    125c:	26245230 	addiu	a0,s1,21040
    1260:	3c020000 	lui	v0,0x0
    1264:	8c4258f4 	lw	v0,22772(v0)
    1268:	0040f809 	jalr	v0
    126c:	02002021 	move	a0,s0
    1270:	3c040000 	lui	a0,0x0
    1274:	24844dbc 	addiu	a0,a0,19900
    1278:	26255230 	addiu	a1,s1,21040
    127c:	00403021 	move	a2,v0
    1280:	0c0001e3 	jal	78c <logPrintf>
    1284:	00408021 	move	s0,v0
    1288:	8fbf000c 	lw	ra,12(sp)
    128c:	02001021 	move	v0,s0
    1290:	8fb10008 	lw	s1,8(sp)
    1294:	8fb00004 	lw	s0,4(sp)
    1298:	03e00008 	jr	ra
    129c:	27bd0010 	addiu	sp,sp,16
    12a0:	0800047a 	j	11e8 <hookUsbbdRegister+0x60>
    12a4:	24c64dd4 	addiu	a2,a2,19924
    12a8:	3c108002 	lui	s0,0x8002
    12ac:	080004a2 	j	1288 <hookUsbbdRegister+0x100>
    12b0:	2610006a 	addiu	s0,s0,106

000012b4 <hookUsbbdClearFIFO>:
    12b4:	27bdfff0 	addiu	sp,sp,-16
    12b8:	afb00004 	sw	s0,4(sp)
    12bc:	afbf000c 	sw	ra,12(sp)
    12c0:	afb10008 	sw	s1,8(sp)
    12c4:	10800017 	beqz	a0,1324 <hookUsbbdClearFIFO+0x70>
    12c8:	00808021 	move	s0,a0
    12cc:	8c860000 	lw	a2,0(a0)
    12d0:	3c110000 	lui	s1,0x0
    12d4:	3c040000 	lui	a0,0x0
    12d8:	2625527c 	addiu	a1,s1,21116
    12dc:	0c0001e3 	jal	78c <logPrintf>
    12e0:	24844d90 	addiu	a0,a0,19856
    12e4:	3c020000 	lui	v0,0x0
    12e8:	8c4258e8 	lw	v0,22760(v0)
    12ec:	0040f809 	jalr	v0
    12f0:	02002021 	move	a0,s0
    12f4:	3c040000 	lui	a0,0x0
    12f8:	24844dbc 	addiu	a0,a0,19900
    12fc:	2625527c 	addiu	a1,s1,21116
    1300:	00403021 	move	a2,v0
    1304:	0c0001e3 	jal	78c <logPrintf>
    1308:	00408021 	move	s0,v0
    130c:	8fbf000c 	lw	ra,12(sp)
    1310:	02001021 	move	v0,s0
    1314:	8fb10008 	lw	s1,8(sp)
    1318:	8fb00004 	lw	s0,4(sp)
    131c:	03e00008 	jr	ra
    1320:	27bd0010 	addiu	sp,sp,16
    1324:	3c108002 	lui	s0,0x8002
    1328:	080004c3 	j	130c <hookUsbbdClearFIFO+0x58>
    132c:	2610006a 	addiu	s0,s0,106

00001330 <hookUsbbdReqRecv>:
    1330:	27bdfff0 	addiu	sp,sp,-16
    1334:	afb20008 	sw	s2,8(sp)
    1338:	afbf000c 	sw	ra,12(sp)
    133c:	afb10004 	sw	s1,4(sp)
    1340:	afb00000 	sw	s0,0(sp)
    1344:	10800037 	beqz	a0,1424 <hookUsbbdReqRecv+0xf4>
    1348:	00809021 	move	s2,a0
    134c:	8c820000 	lw	v0,0(a0)
    1350:	50400035 	beqzl	v0,1428 <hookUsbbdReqRecv+0xf8>
    1354:	3c118002 	lui	s1,0x8002
    1358:	8c830004 	lw	v1,4(a0)
    135c:	10600031 	beqz	v1,1424 <hookUsbbdReqRecv+0xf4>
    1360:	3c100000 	lui	s0,0x0
    1364:	8c460000 	lw	a2,0(v0)
    1368:	3c040000 	lui	a0,0x0
    136c:	24844d90 	addiu	a0,a0,19856
    1370:	0c0001e3 	jal	78c <logPrintf>
    1374:	26055298 	addiu	a1,s0,21144
    1378:	8e460008 	lw	a2,8(s2)
    137c:	3c040000 	lui	a0,0x0
    1380:	26055298 	addiu	a1,s0,21144
    1384:	0c0001e3 	jal	78c <logPrintf>
    1388:	248452a8 	addiu	a0,a0,21160
    138c:	3c020000 	lui	v0,0x0
    1390:	8c4258dc 	lw	v0,22748(v0)
    1394:	0040f809 	jalr	v0
    1398:	02402021 	move	a0,s2
    139c:	8e450004 	lw	a1,4(s2)
    13a0:	8e460008 	lw	a2,8(s2)
    13a4:	26045298 	addiu	a0,s0,21144
    13a8:	0c000246 	jal	918 <cupIoWrite>
    13ac:	00408821 	move	s1,v0
    13b0:	8e470018 	lw	a3,24(s2)
    13b4:	24e20003 	addiu	v0,a3,3
    13b8:	2c430004 	sltiu	v1,v0,4
    13bc:	10600017 	beqz	v1,141c <hookUsbbdReqRecv+0xec>
    13c0:	3c080000 	lui	t0,0x0
    13c4:	3c030000 	lui	v1,0x0
    13c8:	00021080 	sll	v0,v0,0x2
    13cc:	246354f4 	addiu	v1,v1,21748
    13d0:	00431021 	addu	v0,v0,v1
    13d4:	8c480000 	lw	t0,0(v0)
    13d8:	8e460014 	lw	a2,20(s2)
    13dc:	3c040000 	lui	a0,0x0
    13e0:	248452b8 	addiu	a0,a0,21176
    13e4:	0c0001e3 	jal	78c <logPrintf>
    13e8:	26055298 	addiu	a1,s0,21144
    13ec:	3c040000 	lui	a0,0x0
    13f0:	24844dbc 	addiu	a0,a0,19900
    13f4:	26055298 	addiu	a1,s0,21144
    13f8:	0c0001e3 	jal	78c <logPrintf>
    13fc:	02203021 	move	a2,s1
    1400:	8fbf000c 	lw	ra,12(sp)
    1404:	02201021 	move	v0,s1
    1408:	8fb20008 	lw	s2,8(sp)
    140c:	8fb10004 	lw	s1,4(sp)
    1410:	8fb00000 	lw	s0,0(sp)
    1414:	03e00008 	jr	ra
    1418:	27bd0010 	addiu	sp,sp,16
    141c:	080004f6 	j	13d8 <hookUsbbdReqRecv+0xa8>
    1420:	25085290 	addiu	t0,t0,21136
    1424:	3c118002 	lui	s1,0x8002
    1428:	08000500 	j	1400 <hookUsbbdReqRecv+0xd0>
    142c:	2631006a 	addiu	s1,s1,106

00001430 <hookUsbbdReqSend>:
    1430:	27bdfff0 	addiu	sp,sp,-16
    1434:	afb20008 	sw	s2,8(sp)
    1438:	afbf000c 	sw	ra,12(sp)
    143c:	afb10004 	sw	s1,4(sp)
    1440:	afb00000 	sw	s0,0(sp)
    1444:	10800037 	beqz	a0,1524 <hookUsbbdReqSend+0xf4>
    1448:	00809021 	move	s2,a0
    144c:	8c820000 	lw	v0,0(a0)
    1450:	50400035 	beqzl	v0,1528 <hookUsbbdReqSend+0xf8>
    1454:	3c118002 	lui	s1,0x8002
    1458:	8c830004 	lw	v1,4(a0)
    145c:	10600031 	beqz	v1,1524 <hookUsbbdReqSend+0xf4>
    1460:	3c100000 	lui	s0,0x0
    1464:	8c460000 	lw	a2,0(v0)
    1468:	3c040000 	lui	a0,0x0
    146c:	24844d90 	addiu	a0,a0,19856
    1470:	0c0001e3 	jal	78c <logPrintf>
    1474:	26055504 	addiu	a1,s0,21764
    1478:	8e460008 	lw	a2,8(s2)
    147c:	3c040000 	lui	a0,0x0
    1480:	248452a8 	addiu	a0,a0,21160
    1484:	0c0001e3 	jal	78c <logPrintf>
    1488:	26055504 	addiu	a1,s0,21764
    148c:	8e450004 	lw	a1,4(s2)
    1490:	8e460008 	lw	a2,8(s2)
    1494:	0c000246 	jal	918 <cupIoWrite>
    1498:	26045504 	addiu	a0,s0,21764
    149c:	3c020000 	lui	v0,0x0
    14a0:	8c4258d0 	lw	v0,22736(v0)
    14a4:	0040f809 	jalr	v0
    14a8:	02402021 	move	a0,s2
    14ac:	8e470018 	lw	a3,24(s2)
    14b0:	00408821 	move	s1,v0
    14b4:	24e20003 	addiu	v0,a3,3
    14b8:	2c430004 	sltiu	v1,v0,4
    14bc:	10600017 	beqz	v1,151c <hookUsbbdReqSend+0xec>
    14c0:	3c080000 	lui	t0,0x0
    14c4:	3c030000 	lui	v1,0x0
    14c8:	00021080 	sll	v0,v0,0x2
    14cc:	24635514 	addiu	v1,v1,21780
    14d0:	00431021 	addu	v0,v0,v1
    14d4:	8c480000 	lw	t0,0(v0)
    14d8:	8e460014 	lw	a2,20(s2)
    14dc:	3c040000 	lui	a0,0x0
    14e0:	248452b8 	addiu	a0,a0,21176
    14e4:	0c0001e3 	jal	78c <logPrintf>
    14e8:	26055504 	addiu	a1,s0,21764
    14ec:	3c040000 	lui	a0,0x0
    14f0:	24844dbc 	addiu	a0,a0,19900
    14f4:	26055504 	addiu	a1,s0,21764
    14f8:	0c0001e3 	jal	78c <logPrintf>
    14fc:	02203021 	move	a2,s1
    1500:	8fbf000c 	lw	ra,12(sp)
    1504:	02201021 	move	v0,s1
    1508:	8fb20008 	lw	s2,8(sp)
    150c:	8fb10004 	lw	s1,4(sp)
    1510:	8fb00000 	lw	s0,0(sp)
    1514:	03e00008 	jr	ra
    1518:	27bd0010 	addiu	sp,sp,16
    151c:	08000536 	j	14d8 <hookUsbbdReqSend+0xa8>
    1520:	25085290 	addiu	t0,t0,21136
    1524:	3c118002 	lui	s1,0x8002
    1528:	08000540 	j	1500 <hookUsbbdReqSend+0xd0>
    152c:	2631006a 	addiu	s1,s1,106

00001530 <vsnprintf>:
    1530:	27bdfff0 	addiu	sp,sp,-16
    1534:	24a3ffff 	addiu	v1,a1,-1
    1538:	afbf000c 	sw	ra,12(sp)
    153c:	00801021 	move	v0,a0
    1540:	00831821 	addu	v1,a0,v1
    1544:	a0800000 	sb	zero,0(a0)
    1548:	3c040000 	lui	a0,0x0
    154c:	03a02821 	move	a1,sp
    1550:	24842aec 	addiu	a0,a0,10988
    1554:	afa20000 	sw	v0,0(sp)
    1558:	0c0005e7 	jal	179c <vxprintf>
    155c:	afa30004 	sw	v1,4(sp)
    1560:	8fbf000c 	lw	ra,12(sp)
    1564:	03e00008 	jr	ra
    1568:	27bd0010 	addiu	sp,sp,16

0000156c <sprintf>:
    156c:	27bdffd0 	addiu	sp,sp,-48
    1570:	27a20018 	addiu	v0,sp,24
    1574:	00a01821 	move	v1,a1
    1578:	afa40004 	sw	a0,4(sp)
    157c:	3c040000 	lui	a0,0x0
    1580:	afa60018 	sw	a2,24(sp)
    1584:	afa7001c 	sw	a3,28(sp)
    1588:	27a50004 	addiu	a1,sp,4
    158c:	24842aec 	addiu	a0,a0,10988
    1590:	00603021 	move	a2,v1
    1594:	00403821 	move	a3,v0
    1598:	afbf0014 	sw	ra,20(sp)
    159c:	afa80020 	sw	t0,32(sp)
    15a0:	afa90024 	sw	t1,36(sp)
    15a4:	afaa0028 	sw	t2,40(sp)
    15a8:	afab002c 	sw	t3,44(sp)
    15ac:	afa00008 	sw	zero,8(sp)
    15b0:	0c0005e7 	jal	179c <vxprintf>
    15b4:	afa20000 	sw	v0,0(sp)
    15b8:	8fbf0014 	lw	ra,20(sp)
    15bc:	03e00008 	jr	ra
    15c0:	27bd0030 	addiu	sp,sp,48

000015c4 <strrchr>:
    15c4:	27bdfff0 	addiu	sp,sp,-16
    15c8:	afb10008 	sw	s1,8(sp)
    15cc:	afb00004 	sw	s0,4(sp)
    15d0:	afbf000c 	sw	ra,12(sp)
    15d4:	0c000592 	jal	1648 <strchr>
    15d8:	00a08821 	move	s1,a1
    15dc:	00408021 	move	s0,v0
    15e0:	16000003 	bnez	s0,15f0 <strrchr+0x2c>
    15e4:	00001021 	move	v0,zero
    15e8:	08000583 	j	160c <strrchr+0x48>
    15ec:	8fbf000c 	lw	ra,12(sp)
    15f0:	26040001 	addiu	a0,s0,1
    15f4:	0c000592 	jal	1648 <strchr>
    15f8:	02202821 	move	a1,s1
    15fc:	5440fffc 	bnezl	v0,15f0 <strrchr+0x2c>
    1600:	00408021 	move	s0,v0
    1604:	02001021 	move	v0,s0
    1608:	8fbf000c 	lw	ra,12(sp)
    160c:	8fb10008 	lw	s1,8(sp)
    1610:	8fb00004 	lw	s0,4(sp)
    1614:	03e00008 	jr	ra
    1618:	27bd0010 	addiu	sp,sp,16

0000161c <memcpy>:
    161c:	10c00008 	beqz	a2,1640 <memcpy+0x24>
    1620:	00801021 	move	v0,a0
    1624:	00801821 	move	v1,a0
    1628:	80a40000 	lb	a0,0(a1)
    162c:	24c6ffff 	addiu	a2,a2,-1
    1630:	24a50001 	addiu	a1,a1,1
    1634:	a0640000 	sb	a0,0(v1)
    1638:	14c0fffb 	bnez	a2,1628 <memcpy+0xc>
    163c:	24630001 	addiu	v1,v1,1
    1640:	03e00008 	jr	ra
    1644:	00000000 	nop

00001648 <strchr>:
    1648:	7c052c20 	seb	a1,a1
    164c:	80820000 	lb	v0,0(a0)
    1650:	10450005 	beq	v0,a1,1668 <strchr+0x20>
    1654:	00000000 	nop
    1658:	1440fffc 	bnez	v0,164c <strchr+0x4>
    165c:	24840001 	addiu	a0,a0,1
    1660:	03e00008 	jr	ra
    1664:	00000000 	nop
    1668:	03e00008 	jr	ra
    166c:	00801021 	move	v0,a0

00001670 <strcmp>:
    1670:	90820000 	lbu	v0,0(a0)
    1674:	90a30000 	lbu	v1,0(a1)
    1678:	1443000a 	bne	v0,v1,16a4 <strcmp+0x34>
    167c:	24840001 	addiu	a0,a0,1
    1680:	24a50001 	addiu	a1,a1,1
    1684:	54400003 	bnezl	v0,1694 <strcmp+0x24>
    1688:	90820000 	lbu	v0,0(a0)
    168c:	03e00008 	jr	ra
    1690:	00001021 	move	v0,zero
    1694:	90a30000 	lbu	v1,0(a1)
    1698:	24840001 	addiu	a0,a0,1
    169c:	1043fff9 	beq	v0,v1,1684 <strcmp+0x14>
    16a0:	24a50001 	addiu	a1,a1,1
    16a4:	03e00008 	jr	ra
    16a8:	00431023 	subu	v0,v0,v1

000016ac <strlen>:
    16ac:	80830000 	lb	v1,0(a0)
    16b0:	10600006 	beqz	v1,16cc <strlen+0x20>
    16b4:	00001021 	move	v0,zero
    16b8:	24420001 	addiu	v0,v0,1
    16bc:	00821821 	addu	v1,a0,v0
    16c0:	80630000 	lb	v1,0(v1)
    16c4:	5460fffd 	bnezl	v1,16bc <strlen+0x10>
    16c8:	24420001 	addiu	v0,v0,1
    16cc:	03e00008 	jr	ra
    16d0:	00000000 	nop

000016d4 <getdigit>:
    16d4:	8ca20000 	lw	v0,0(a1)
    16d8:	27bdffe8 	addiu	sp,sp,-24
    16dc:	afb30010 	sw	s3,16(sp)
    16e0:	24430001 	addiu	v1,v0,1
    16e4:	28420014 	slti	v0,v0,20
    16e8:	afb2000c 	sw	s2,12(sp)
    16ec:	afbf0014 	sw	ra,20(sp)
    16f0:	afb10008 	sw	s1,8(sp)
    16f4:	afb00004 	sw	s0,4(sp)
    16f8:	00809821 	move	s3,a0
    16fc:	24120030 	li	s2,48
    1700:	14400009 	bnez	v0,1728 <getdigit+0x54>
    1704:	aca30000 	sw	v1,0(a1)
    1708:	8fbf0014 	lw	ra,20(sp)
    170c:	02401021 	move	v0,s2
    1710:	8fb30010 	lw	s3,16(sp)
    1714:	8fb2000c 	lw	s2,12(sp)
    1718:	8fb10008 	lw	s1,8(sp)
    171c:	8fb00004 	lw	s0,4(sp)
    1720:	03e00008 	jr	ra
    1724:	27bd0018 	addiu	sp,sp,24
    1728:	8c910004 	lw	s1,4(a0)
    172c:	8c900000 	lw	s0,0(a0)
    1730:	02202821 	move	a1,s1
    1734:	0c001156 	jal	4558 <__fixdfsi>
    1738:	02002021 	move	a0,s0
    173c:	00402021 	move	a0,v0
    1740:	0c00112c 	jal	44b0 <__floatsidf>
    1744:	24520030 	addiu	s2,v0,48
    1748:	00403021 	move	a2,v0
    174c:	02002021 	move	a0,s0
    1750:	02202821 	move	a1,s1
    1754:	0c001004 	jal	4010 <__subdf3>
    1758:	00603821 	move	a3,v1
    175c:	3c040000 	lui	a0,0x0
    1760:	8c865638 	lw	a2,22072(a0)
    1764:	8c87563c 	lw	a3,22076(a0)
    1768:	00602821 	move	a1,v1
    176c:	0c00101c 	jal	4070 <__muldf3>
    1770:	00402021 	move	a0,v0
    1774:	8fbf0014 	lw	ra,20(sp)
    1778:	ae620000 	sw	v0,0(s3)
    177c:	ae630004 	sw	v1,4(s3)
    1780:	02401021 	move	v0,s2
    1784:	8fb30010 	lw	s3,16(sp)
    1788:	8fb2000c 	lw	s2,12(sp)
    178c:	8fb10008 	lw	s1,8(sp)
    1790:	8fb00004 	lw	s0,4(sp)
    1794:	03e00008 	jr	ra
    1798:	27bd0018 	addiu	sp,sp,24

0000179c <vxprintf>:
    179c:	27bdff20 	addiu	sp,sp,-224
    17a0:	afb600d0 	sw	s6,208(sp)
    17a4:	afb500cc 	sw	s5,204(sp)
    17a8:	afbf00dc 	sw	ra,220(sp)
    17ac:	afbe00d8 	sw	s8,216(sp)
    17b0:	afb700d4 	sw	s7,212(sp)
    17b4:	afb400c8 	sw	s4,200(sp)
    17b8:	afb300c4 	sw	s3,196(sp)
    17bc:	afb200c0 	sw	s2,192(sp)
    17c0:	afb100bc 	sw	s1,188(sp)
    17c4:	afb000b8 	sw	s0,184(sp)
    17c8:	80c20000 	lb	v0,0(a2)
    17cc:	0080b021 	move	s6,a0
    17d0:	00a0a821 	move	s5,a1
    17d4:	afa70088 	sw	a3,136(sp)
    17d8:	104000b4 	beqz	v0,1aac <vxprintf+0x310>
    17dc:	afa0007c 	sw	zero,124(sp)
    17e0:	00c08021 	move	s0,a2
    17e4:	afa000a4 	sw	zero,164(sp)
    17e8:	00009021 	move	s2,zero
    17ec:	00008821 	move	s1,zero
    17f0:	24030025 	li	v1,37
    17f4:	10430012 	beq	v0,v1,1840 <vxprintf+0xa4>
    17f8:	26130001 	addiu	s3,s0,1
    17fc:	82020001 	lb	v0,1(s0)
    1800:	10430006 	beq	v0,v1,181c <vxprintf+0x80>
    1804:	24140001 	li	s4,1
    1808:	104002f9 	beqz	v0,23f0 <vxprintf+0xc54>
    180c:	26730001 	addiu	s3,s3,1
    1810:	82620000 	lb	v0,0(s3)
    1814:	1443fffc 	bne	v0,v1,1808 <vxprintf+0x6c>
    1818:	26940001 	addiu	s4,s4,1
    181c:	02002021 	move	a0,s0
    1820:	02802821 	move	a1,s4
    1824:	02c0f809 	jalr	s6
    1828:	02a03021 	move	a2,s5
    182c:	8fa2007c 	lw	v0,124(sp)
    1830:	02008821 	move	s1,s0
    1834:	02608021 	move	s0,s3
    1838:	00541021 	addu	v0,v0,s4
    183c:	afa2007c 	sw	v0,124(sp)
    1840:	82020001 	lb	v0,1(s0)
    1844:	104003f6 	beqz	v0,2820 <vxprintf+0x1084>
    1848:	3c050000 	lui	a1,0x0
    184c:	26100001 	addiu	s0,s0,1
    1850:	afa00080 	sw	zero,128(sp)
    1854:	afa00090 	sw	zero,144(sp)
    1858:	afa00094 	sw	zero,148(sp)
    185c:	0000b821 	move	s7,zero
    1860:	00009821 	move	s3,zero
    1864:	afa00078 	sw	zero,120(sp)
    1868:	24a55588 	addiu	a1,a1,21896
    186c:	2443ffe0 	addiu	v1,v0,-32
    1870:	2c64001e 	sltiu	a0,v1,30
    1874:	5480009a 	bnezl	a0,1ae0 <vxprintf+0x344>
    1878:	00031880 	sll	v1,v1,0x2
    187c:	14400006 	bnez	v0,1898 <vxprintf+0xfc>
    1880:	8fa40078 	lw	a0,120(sp)
    1884:	26100001 	addiu	s0,s0,1
    1888:	82020000 	lb	v0,0(s0)
    188c:	1440fff8 	bnez	v0,1870 <vxprintf+0xd4>
    1890:	2443ffe0 	addiu	v1,v0,-32
    1894:	8fa40078 	lw	a0,120(sp)
    1898:	8fa50080 	lw	a1,128(sp)
    189c:	2403002a 	li	v1,42
    18a0:	0005200b 	movn	a0,zero,a1
    18a4:	10430301 	beq	v0,v1,24ac <vxprintf+0xd10>
    18a8:	afa40078 	sw	a0,120(sp)
    18ac:	2444ffd0 	addiu	a0,v0,-48
    18b0:	2c84000a 	sltiu	a0,a0,10
    18b4:	1080031b 	beqz	a0,2524 <vxprintf+0xd88>
    18b8:	00001821 	move	v1,zero
    18bc:	00032040 	sll	a0,v1,0x1
    18c0:	000318c0 	sll	v1,v1,0x3
    18c4:	00831821 	addu	v1,a0,v1
    18c8:	26100001 	addiu	s0,s0,1
    18cc:	00621821 	addu	v1,v1,v0
    18d0:	82020000 	lb	v0,0(s0)
    18d4:	2444ffd0 	addiu	a0,v0,-48
    18d8:	2c84000a 	sltiu	a0,a0,10
    18dc:	1480fff7 	bnez	a0,18bc <vxprintf+0x120>
    18e0:	2463ffd0 	addiu	v1,v1,-48
    18e4:	2404005a 	li	a0,90
    18e8:	0064202d 	min	a0,v1,a0
    18ec:	afa4008c 	sw	a0,140(sp)
    18f0:	2403002e 	li	v1,46
    18f4:	104302d8 	beq	v0,v1,2458 <vxprintf+0xcbc>
    18f8:	2414ffff 	li	s4,-1
    18fc:	2403006c 	li	v1,108
    1900:	104302cf 	beq	v0,v1,2440 <vxprintf+0xca4>
    1904:	00004021 	move	t0,zero
    1908:	3c090000 	lui	t1,0x0
    190c:	8d23592c 	lw	v1,22828(t1)
    1910:	1062008d 	beq	v1,v0,1b48 <vxprintf+0x3ac>
    1914:	3c040000 	lui	a0,0x0
    1918:	24845944 	addiu	a0,a0,22852
    191c:	24030001 	li	v1,1
    1920:	24060001 	li	a2,1
    1924:	24070016 	li	a3,22
    1928:	8c850000 	lw	a1,0(a0)
    192c:	10a20087 	beq	a1,v0,1b4c <vxprintf+0x3b0>
    1930:	24630001 	addiu	v1,v1,1
    1934:	00603021 	move	a2,v1
    1938:	1467fffb 	bne	v1,a3,1928 <vxprintf+0x18c>
    193c:	24840018 	addiu	a0,a0,24
    1940:	24030025 	li	v1,37
    1944:	3c040000 	lui	a0,0x0
    1948:	a3a30010 	sb	v1,16(sp)
    194c:	a3a20011 	sb	v0,17(sp)
    1950:	104002fc 	beqz	v0,2544 <vxprintf+0xda8>
    1954:	24845530 	addiu	a0,a0,21808
    1958:	24050002 	li	a1,2
    195c:	02c0f809 	jalr	s6
    1960:	02a03021 	move	a2,s5
    1964:	8fa3007c 	lw	v1,124(sp)
    1968:	24040008 	li	a0,8
    196c:	afa40084 	sw	a0,132(sp)
    1970:	24630002 	addiu	v1,v1,2
    1974:	afa3007c 	sw	v1,124(sp)
    1978:	8fa50078 	lw	a1,120(sp)
    197c:	14a00022 	bnez	a1,1a08 <vxprintf+0x26c>
    1980:	24140001 	li	s4,1
    1984:	8fa2008c 	lw	v0,140(sp)
    1988:	00522823 	subu	a1,v0,s2
    198c:	18a0001e 	blez	a1,1a08 <vxprintf+0x26c>
    1990:	0000a021 	move	s4,zero
    1994:	8fa30080 	lw	v1,128(sp)
    1998:	10600007 	beqz	v1,19b8 <vxprintf+0x21c>
    199c:	8fa3007c 	lw	v1,124(sp)
    19a0:	8fa4008c 	lw	a0,140(sp)
    19a4:	00052843 	sra	a1,a1,0x1
    19a8:	24140001 	li	s4,1
    19ac:	00852023 	subu	a0,a0,a1
    19b0:	afa4008c 	sw	a0,140(sp)
    19b4:	8fa3007c 	lw	v1,124(sp)
    19b8:	2ca20034 	sltiu	v0,a1,52
    19bc:	00a09821 	move	s3,a1
    19c0:	00651821 	addu	v1,v1,a1
    19c4:	1440000b 	bnez	v0,19f4 <vxprintf+0x258>
    19c8:	afa3007c 	sw	v1,124(sp)
    19cc:	3c170000 	lui	s7,0x0
    19d0:	26f75b3c 	addiu	s7,s7,23356
    19d4:	2673ffcc 	addiu	s3,s3,-52
    19d8:	24050034 	li	a1,52
    19dc:	02e02021 	move	a0,s7
    19e0:	02c0f809 	jalr	s6
    19e4:	02a03021 	move	a2,s5
    19e8:	2e620034 	sltiu	v0,s3,52
    19ec:	1040fff9 	beqz	v0,19d4 <vxprintf+0x238>
    19f0:	02602821 	move	a1,s3
    19f4:	10a00004 	beqz	a1,1a08 <vxprintf+0x26c>
    19f8:	3c170000 	lui	s7,0x0
    19fc:	26e45b3c 	addiu	a0,s7,23356
    1a00:	02c0f809 	jalr	s6
    1a04:	02a03021 	move	a2,s5
    1a08:	1a400007 	blez	s2,1a28 <vxprintf+0x28c>
    1a0c:	02202021 	move	a0,s1
    1a10:	02402821 	move	a1,s2
    1a14:	02c0f809 	jalr	s6
    1a18:	02a03021 	move	a2,s5
    1a1c:	8fa4007c 	lw	a0,124(sp)
    1a20:	00922021 	addu	a0,a0,s2
    1a24:	afa4007c 	sw	a0,124(sp)
    1a28:	8fa50084 	lw	a1,132(sp)
    1a2c:	2402000b 	li	v0,11
    1a30:	10a2003f 	beq	a1,v0,1b30 <vxprintf+0x394>
    1a34:	8fa200a4 	lw	v0,164(sp)
    1a38:	5280001a 	beqzl	s4,1aa4 <vxprintf+0x308>
    1a3c:	82020001 	lb	v0,1(s0)
    1a40:	8fa3008c 	lw	v1,140(sp)
    1a44:	00729823 	subu	s3,v1,s2
    1a48:	1a600015 	blez	s3,1aa0 <vxprintf+0x304>
    1a4c:	8fa4007c 	lw	a0,124(sp)
    1a50:	3c170000 	lui	s7,0x0
    1a54:	2e620034 	sltiu	v0,s3,52
    1a58:	00932021 	addu	a0,a0,s3
    1a5c:	afa4007c 	sw	a0,124(sp)
    1a60:	1440000b 	bnez	v0,1a90 <vxprintf+0x2f4>
    1a64:	26f45b3c 	addiu	s4,s7,23356
    1a68:	02802021 	move	a0,s4
    1a6c:	24050034 	li	a1,52
    1a70:	02a03021 	move	a2,s5
    1a74:	02c0f809 	jalr	s6
    1a78:	2673ffcc 	addiu	s3,s3,-52
    1a7c:	2e620034 	sltiu	v0,s3,52
    1a80:	1040fffa 	beqz	v0,1a6c <vxprintf+0x2d0>
    1a84:	02802021 	move	a0,s4
    1a88:	52600006 	beqzl	s3,1aa4 <vxprintf+0x308>
    1a8c:	82020001 	lb	v0,1(s0)
    1a90:	26e45b3c 	addiu	a0,s7,23356
    1a94:	02602821 	move	a1,s3
    1a98:	02c0f809 	jalr	s6
    1a9c:	02a03021 	move	a2,s5
    1aa0:	82020001 	lb	v0,1(s0)
    1aa4:	1440ff52 	bnez	v0,17f0 <vxprintf+0x54>
    1aa8:	26100001 	addiu	s0,s0,1
    1aac:	8fbf00dc 	lw	ra,220(sp)
    1ab0:	8fa2007c 	lw	v0,124(sp)
    1ab4:	8fbe00d8 	lw	s8,216(sp)
    1ab8:	8fb700d4 	lw	s7,212(sp)
    1abc:	8fb600d0 	lw	s6,208(sp)
    1ac0:	8fb500cc 	lw	s5,204(sp)
    1ac4:	8fb400c8 	lw	s4,200(sp)
    1ac8:	8fb300c4 	lw	s3,196(sp)
    1acc:	8fb200c0 	lw	s2,192(sp)
    1ad0:	8fb100bc 	lw	s1,188(sp)
    1ad4:	8fb000b8 	lw	s0,184(sp)
    1ad8:	03e00008 	jr	ra
    1adc:	27bd00e0 	addiu	sp,sp,224
    1ae0:	00a31821 	addu	v1,a1,v1
    1ae4:	8c630000 	lw	v1,0(v1)
    1ae8:	00600008 	jr	v1
    1aec:	00000000 	nop
    1af0:	24030001 	li	v1,1
    1af4:	08000621 	j	1884 <vxprintf+0xe8>
    1af8:	afa30080 	sw	v1,128(sp)
    1afc:	24040001 	li	a0,1
    1b00:	08000621 	j	1884 <vxprintf+0xe8>
    1b04:	afa40094 	sw	a0,148(sp)
    1b08:	08000621 	j	1884 <vxprintf+0xe8>
    1b0c:	24170001 	li	s7,1
    1b10:	24020001 	li	v0,1
    1b14:	08000621 	j	1884 <vxprintf+0xe8>
    1b18:	afa20078 	sw	v0,120(sp)
    1b1c:	08000621 	j	1884 <vxprintf+0xe8>
    1b20:	24130001 	li	s3,1
    1b24:	24020001 	li	v0,1
    1b28:	08000621 	j	1884 <vxprintf+0xe8>
    1b2c:	afa20090 	sw	v0,144(sp)
    1b30:	1040ffc1 	beqz	v0,1a38 <vxprintf+0x29c>
    1b34:	00000000 	nop
    1b38:	0c000ad9 	jal	2b64 <free>
    1b3c:	00402021 	move	a0,v0
    1b40:	0800068e 	j	1a38 <vxprintf+0x29c>
    1b44:	00000000 	nop
    1b48:	00003021 	move	a2,zero
    1b4c:	000618c0 	sll	v1,a2,0x3
    1b50:	00063140 	sll	a2,a2,0x5
    1b54:	00c33023 	subu	a2,a2,v1
    1b58:	2523592c 	addiu	v1,t1,22828
    1b5c:	00661821 	addu	v1,v1,a2
    1b60:	8c650014 	lw	a1,20(v1)
    1b64:	afa30098 	sw	v1,152(sp)
    1b68:	2ca3000d 	sltiu	v1,a1,13
    1b6c:	1060ff82 	beqz	v1,1978 <vxprintf+0x1dc>
    1b70:	afa50084 	sw	a1,132(sp)
    1b74:	3c030000 	lui	v1,0x0
    1b78:	00052080 	sll	a0,a1,0x2
    1b7c:	24635600 	addiu	v1,v1,22016
    1b80:	00641821 	addu	v1,v1,a0
    1b84:	8c630000 	lw	v1,0(v1)
    1b88:	00600008 	jr	v1
    1b8c:	00000000 	nop
    1b90:	8fa30084 	lw	v1,132(sp)
    1b94:	24020007 	li	v0,7
    1b98:	10620319 	beq	v1,v0,2800 <vxprintf+0x1064>
    1b9c:	8fa40088 	lw	a0,136(sp)
    1ba0:	82030001 	lb	v1,1(s0)
    1ba4:	26100001 	addiu	s0,s0,1
    1ba8:	0680031a 	bltz	s4,2814 <vxprintf+0x1078>
    1bac:	a3a30010 	sb	v1,16(sp)
    1bb0:	2a820002 	slti	v0,s4,2
    1bb4:	144003bd 	bnez	v0,2aac <vxprintf+0x1310>
    1bb8:	27a20011 	addiu	v0,sp,17
    1bbc:	27b30010 	addiu	s3,sp,16
    1bc0:	02742021 	addu	a0,s3,s4
    1bc4:	a0430000 	sb	v1,0(v0)
    1bc8:	24420001 	addiu	v0,v0,1
    1bcc:	5444fffe 	bnel	v0,a0,1bc8 <vxprintf+0x42c>
    1bd0:	a0430000 	sb	v1,0(v0)
    1bd4:	02809021 	move	s2,s4
    1bd8:	0800065e 	j	1978 <vxprintf+0x1dc>
    1bdc:	02608821 	move	s1,s3
    1be0:	24020025 	li	v0,37
    1be4:	a3a20010 	sb	v0,16(sp)
    1be8:	24120001 	li	s2,1
    1bec:	0800065e 	j	1978 <vxprintf+0x1dc>
    1bf0:	27b10010 	addiu	s1,sp,16
    1bf4:	8fa50088 	lw	a1,136(sp)
    1bf8:	8cb30000 	lw	s3,0(a1)
    1bfc:	1260037f 	beqz	s3,29fc <vxprintf+0x1260>
    1c00:	24b70004 	addiu	s7,a1,4
    1c04:	0c0005ab 	jal	16ac <strlen>
    1c08:	02602021 	move	a0,s3
    1c0c:	00409021 	move	s2,v0
    1c10:	02608821 	move	s1,s3
    1c14:	afb300a4 	sw	s3,164(sp)
    1c18:	0680ff57 	bltz	s4,1978 <vxprintf+0x1dc>
    1c1c:	afb70088 	sw	s7,136(sp)
    1c20:	0800065e 	j	1978 <vxprintf+0x1dc>
    1c24:	0292902d 	min	s2,s4,s2
    1c28:	8fa40088 	lw	a0,136(sp)
    1c2c:	8fa5007c 	lw	a1,124(sp)
    1c30:	afa0008c 	sw	zero,140(sp)
    1c34:	8c820000 	lw	v0,0(a0)
    1c38:	24840004 	addiu	a0,a0,4
    1c3c:	afa40088 	sw	a0,136(sp)
    1c40:	ac450000 	sw	a1,0(v0)
    1c44:	0800065e 	j	1978 <vxprintf+0x1dc>
    1c48:	00009021 	move	s2,zero
    1c4c:	8fa20088 	lw	v0,136(sp)
    1c50:	00003021 	move	a2,zero
    1c54:	00003821 	move	a3,zero
    1c58:	24430007 	addiu	v1,v0,7
    1c5c:	2402fff8 	li	v0,-8
    1c60:	00621024 	and	v0,v1,v0
    1c64:	8c520000 	lw	s2,0(v0)
    1c68:	8c510004 	lw	s1,4(v0)
    1c6c:	24420008 	addiu	v0,v0,8
    1c70:	2a830000 	slti	v1,s4,0
    1c74:	afa20088 	sw	v0,136(sp)
    1c78:	02402021 	move	a0,s2
    1c7c:	24020006 	li	v0,6
    1c80:	02202821 	move	a1,s1
    1c84:	afb20008 	sw	s2,8(sp)
    1c88:	afb1000c 	sw	s1,12(sp)
    1c8c:	0c001113 	jal	444c <__ltdf2>
    1c90:	0043a00b 	movn	s4,v0,v1
    1c94:	04410235 	bgez	v0,256c <vxprintf+0xdd0>
    1c98:	2404002b 	li	a0,43
    1c9c:	3c028000 	lui	v0,0x8000
    1ca0:	02228826 	xor	s1,s1,v0
    1ca4:	2403002d 	li	v1,45
    1ca8:	afb20008 	sw	s2,8(sp)
    1cac:	afb1000c 	sw	s1,12(sp)
    1cb0:	afa300a8 	sw	v1,168(sp)
    1cb4:	8fa30084 	lw	v1,132(sp)
    1cb8:	24020003 	li	v0,3
    1cbc:	10620233 	beq	v1,v0,258c <vxprintf+0xdf0>
    1cc0:	00000000 	nop
    1cc4:	2a820014 	slti	v0,s4,20
    1cc8:	14400236 	bnez	v0,25a4 <vxprintf+0xe08>
    1ccc:	00000000 	nop
    1cd0:	24130013 	li	s3,19
    1cd4:	3c020000 	lui	v0,0x0
    1cd8:	8c425644 	lw	v0,22084(v0)
    1cdc:	afa0009c 	sw	zero,156(sp)
    1ce0:	afa200a0 	sw	v0,160(sp)
    1ce4:	8fa300a0 	lw	v1,160(sp)
    1ce8:	00001021 	move	v0,zero
    1cec:	00402021 	move	a0,v0
    1cf0:	3c020000 	lui	v0,0x0
    1cf4:	24425648 	addiu	v0,v0,22088
    1cf8:	8c460000 	lw	a2,0(v0)
    1cfc:	8c470004 	lw	a3,4(v0)
    1d00:	00602821 	move	a1,v1
    1d04:	0c00101c 	jal	4070 <__muldf3>
    1d08:	2673ffff 	addiu	s3,s3,-1
    1d0c:	1e60fff8 	bgtz	s3,1cf0 <vxprintf+0x554>
    1d10:	00402021 	move	a0,v0
    1d14:	afa2009c 	sw	v0,156(sp)
    1d18:	afa300a0 	sw	v1,160(sp)
    1d1c:	8fa30084 	lw	v1,132(sp)
    1d20:	24020001 	li	v0,1
    1d24:	106202ab 	beq	v1,v0,27d4 <vxprintf+0x1038>
    1d28:	8fa2009c 	lw	v0,156(sp)
    1d2c:	02402021 	move	a0,s2
    1d30:	02202821 	move	a1,s1
    1d34:	00003021 	move	a2,zero
    1d38:	0c0010e1 	jal	4384 <__gtdf2>
    1d3c:	00003821 	move	a3,zero
    1d40:	18400098 	blez	v0,1fa4 <vxprintf+0x808>
    1d44:	0000b821 	move	s7,zero
    1d48:	3c040000 	lui	a0,0x0
    1d4c:	8c865650 	lw	a2,22096(a0)
    1d50:	8c875654 	lw	a3,22100(a0)
    1d54:	02202821 	move	a1,s1
    1d58:	0c0010fa 	jal	43e8 <__gedf2>
    1d5c:	02402021 	move	a0,s2
    1d60:	0440034e 	bltz	v0,2a9c <vxprintf+0x1300>
    1d64:	3c040000 	lui	a0,0x0
    1d68:	3c050000 	lui	a1,0x0
    1d6c:	afa500ac 	sw	a1,172(sp)
    1d70:	24130001 	li	s3,1
    1d74:	08000761 	j	1d84 <vxprintf+0x5e8>
    1d78:	241e0065 	li	s8,101
    1d7c:	527e0016 	beql	s3,s8,1dd8 <vxprintf+0x63c>
    1d80:	afb20008 	sw	s2,8(sp)
    1d84:	3c020000 	lui	v0,0x0
    1d88:	24425658 	addiu	v0,v0,22104
    1d8c:	8c460000 	lw	a2,0(v0)
    1d90:	8c470004 	lw	a3,4(v0)
    1d94:	02402021 	move	a0,s2
    1d98:	0c00101c 	jal	4070 <__muldf3>
    1d9c:	02202821 	move	a1,s1
    1da0:	00608821 	move	s1,v1
    1da4:	00401821 	move	v1,v0
    1da8:	00602021 	move	a0,v1
    1dac:	3c030000 	lui	v1,0x0
    1db0:	24635650 	addiu	v1,v1,22096
    1db4:	8c660000 	lw	a2,0(v1)
    1db8:	8c670004 	lw	a3,4(v1)
    1dbc:	02202821 	move	a1,s1
    1dc0:	00409021 	move	s2,v0
    1dc4:	0c0010fa 	jal	43e8 <__gedf2>
    1dc8:	0013b8c0 	sll	s7,s3,0x3
    1dcc:	0443ffeb 	bgezl	v0,1d7c <vxprintf+0x5e0>
    1dd0:	26730001 	addiu	s3,s3,1
    1dd4:	afb20008 	sw	s2,8(sp)
    1dd8:	afb1000c 	sw	s1,12(sp)
    1ddc:	3c050000 	lui	a1,0x0
    1de0:	8ca65638 	lw	a2,22072(a1)
    1de4:	8ca7563c 	lw	a3,22076(a1)
    1de8:	02402021 	move	a0,s2
    1dec:	0c0010fa 	jal	43e8 <__gedf2>
    1df0:	02202821 	move	a1,s1
    1df4:	0440001e 	bltz	v0,1e70 <vxprintf+0x6d4>
    1df8:	2a620064 	slti	v0,s3,100
    1dfc:	241e0065 	li	s8,101
    1e00:	14400005 	bnez	v0,1e18 <vxprintf+0x67c>
    1e04:	26730001 	addiu	s3,s3,1
    1e08:	0800079d 	j	1e74 <vxprintf+0x6d8>
    1e0c:	8fa400ac 	lw	a0,172(sp)
    1e10:	527e0016 	beql	s3,s8,1e6c <vxprintf+0x6d0>
    1e14:	afb20008 	sw	s2,8(sp)
    1e18:	3c020000 	lui	v0,0x0
    1e1c:	24425648 	addiu	v0,v0,22088
    1e20:	8c460000 	lw	a2,0(v0)
    1e24:	8c470004 	lw	a3,4(v0)
    1e28:	02402021 	move	a0,s2
    1e2c:	0c00101c 	jal	4070 <__muldf3>
    1e30:	02202821 	move	a1,s1
    1e34:	00608821 	move	s1,v1
    1e38:	00401821 	move	v1,v0
    1e3c:	00602021 	move	a0,v1
    1e40:	3c030000 	lui	v1,0x0
    1e44:	24635638 	addiu	v1,v1,22072
    1e48:	8c660000 	lw	a2,0(v1)
    1e4c:	8c670004 	lw	a3,4(v1)
    1e50:	02202821 	move	a1,s1
    1e54:	00409021 	move	s2,v0
    1e58:	0c0010fa 	jal	43e8 <__gedf2>
    1e5c:	26f70001 	addiu	s7,s7,1
    1e60:	0443ffeb 	bgezl	v0,1e10 <vxprintf+0x674>
    1e64:	26730001 	addiu	s3,s3,1
    1e68:	afb20008 	sw	s2,8(sp)
    1e6c:	afb1000c 	sw	s1,12(sp)
    1e70:	8fa400ac 	lw	a0,172(sp)
    1e74:	02202821 	move	a1,s1
    1e78:	8c865658 	lw	a2,22104(a0)
    1e7c:	8c87565c 	lw	a3,22108(a0)
    1e80:	0c001113 	jal	444c <__ltdf2>
    1e84:	02402021 	move	a0,s2
    1e88:	0441001e 	bgez	v0,1f04 <vxprintf+0x768>
    1e8c:	2a620064 	slti	v0,s3,100
    1e90:	241e0065 	li	s8,101
    1e94:	14400005 	bnez	v0,1eac <vxprintf+0x710>
    1e98:	26730001 	addiu	s3,s3,1
    1e9c:	080007c2 	j	1f08 <vxprintf+0x76c>
    1ea0:	3c040000 	lui	a0,0x0
    1ea4:	527e0016 	beql	s3,s8,1f00 <vxprintf+0x764>
    1ea8:	afb20008 	sw	s2,8(sp)
    1eac:	3c020000 	lui	v0,0x0
    1eb0:	24425650 	addiu	v0,v0,22096
    1eb4:	8c460000 	lw	a2,0(v0)
    1eb8:	8c470004 	lw	a3,4(v0)
    1ebc:	02402021 	move	a0,s2
    1ec0:	0c00101c 	jal	4070 <__muldf3>
    1ec4:	02202821 	move	a1,s1
    1ec8:	00608821 	move	s1,v1
    1ecc:	00401821 	move	v1,v0
    1ed0:	00602021 	move	a0,v1
    1ed4:	3c030000 	lui	v1,0x0
    1ed8:	24635658 	addiu	v1,v1,22104
    1edc:	8c660000 	lw	a2,0(v1)
    1ee0:	8c670004 	lw	a3,4(v1)
    1ee4:	02202821 	move	a1,s1
    1ee8:	00409021 	move	s2,v0
    1eec:	0c001113 	jal	444c <__ltdf2>
    1ef0:	26f7fff8 	addiu	s7,s7,-8
    1ef4:	0442ffeb 	bltzl	v0,1ea4 <vxprintf+0x708>
    1ef8:	26730001 	addiu	s3,s3,1
    1efc:	afb20008 	sw	s2,8(sp)
    1f00:	afb1000c 	sw	s1,12(sp)
    1f04:	3c040000 	lui	a0,0x0
    1f08:	8c865660 	lw	a2,22112(a0)
    1f0c:	8c875664 	lw	a3,22116(a0)
    1f10:	02202821 	move	a1,s1
    1f14:	0c001113 	jal	444c <__ltdf2>
    1f18:	02402021 	move	a0,s2
    1f1c:	0441001e 	bgez	v0,1f98 <vxprintf+0x7fc>
    1f20:	2a620064 	slti	v0,s3,100
    1f24:	241e0065 	li	s8,101
    1f28:	14400005 	bnez	v0,1f40 <vxprintf+0x7a4>
    1f2c:	26730001 	addiu	s3,s3,1
    1f30:	080007e7 	j	1f9c <vxprintf+0x800>
    1f34:	2a730064 	slti	s3,s3,100
    1f38:	527e0241 	beql	s3,s8,2840 <vxprintf+0x10a4>
    1f3c:	afb1000c 	sw	s1,12(sp)
    1f40:	3c020000 	lui	v0,0x0
    1f44:	24425638 	addiu	v0,v0,22072
    1f48:	8c460000 	lw	a2,0(v0)
    1f4c:	8c470004 	lw	a3,4(v0)
    1f50:	02402021 	move	a0,s2
    1f54:	0c00101c 	jal	4070 <__muldf3>
    1f58:	02202821 	move	a1,s1
    1f5c:	00608821 	move	s1,v1
    1f60:	00401821 	move	v1,v0
    1f64:	00602021 	move	a0,v1
    1f68:	3c030000 	lui	v1,0x0
    1f6c:	24635660 	addiu	v1,v1,22112
    1f70:	8c660000 	lw	a2,0(v1)
    1f74:	8c670004 	lw	a3,4(v1)
    1f78:	02202821 	move	a1,s1
    1f7c:	00409021 	move	s2,v0
    1f80:	0c001113 	jal	444c <__ltdf2>
    1f84:	26f7ffff 	addiu	s7,s7,-1
    1f88:	0442ffeb 	bltzl	v0,1f38 <vxprintf+0x79c>
    1f8c:	26730001 	addiu	s3,s3,1
    1f90:	afb20008 	sw	s2,8(sp)
    1f94:	afb1000c 	sw	s1,12(sp)
    1f98:	2a730064 	slti	s3,s3,100
    1f9c:	126002a1 	beqz	s3,2a24 <vxprintf+0x1288>
    1fa0:	3c110000 	lui	s1,0x0
    1fa4:	8fa40084 	lw	a0,132(sp)
    1fa8:	24020001 	li	v0,1
    1fac:	10820229 	beq	a0,v0,2854 <vxprintf+0x10b8>
    1fb0:	8fa3009c 	lw	v1,156(sp)
    1fb4:	8fa200a0 	lw	v0,160(sp)
    1fb8:	8fa60008 	lw	a2,8(sp)
    1fbc:	8fa7000c 	lw	a3,12(sp)
    1fc0:	00602021 	move	a0,v1
    1fc4:	0c000fef 	jal	3fbc <__adddf3>
    1fc8:	00402821 	move	a1,v0
    1fcc:	3c050000 	lui	a1,0x0
    1fd0:	8ca65638 	lw	a2,22072(a1)
    1fd4:	8ca7563c 	lw	a3,22076(a1)
    1fd8:	00609021 	move	s2,v1
    1fdc:	00404021 	move	t0,v0
    1fe0:	00408821 	move	s1,v0
    1fe4:	01002021 	move	a0,t0
    1fe8:	02402821 	move	a1,s2
    1fec:	afb10008 	sw	s1,8(sp)
    1ff0:	0c0010fa 	jal	43e8 <__gedf2>
    1ff4:	afb2000c 	sw	s2,12(sp)
    1ff8:	0440000b 	bltz	v0,2028 <vxprintf+0x88c>
    1ffc:	8fa30084 	lw	v1,132(sp)
    2000:	3c020000 	lui	v0,0x0
    2004:	8c465648 	lw	a2,22088(v0)
    2008:	8c47564c 	lw	a3,22092(v0)
    200c:	02202021 	move	a0,s1
    2010:	0c00101c 	jal	4070 <__muldf3>
    2014:	02402821 	move	a1,s2
    2018:	afa20008 	sw	v0,8(sp)
    201c:	afa3000c 	sw	v1,12(sp)
    2020:	26f70001 	addiu	s7,s7,1
    2024:	8fa30084 	lw	v1,132(sp)
    2028:	24020003 	li	v0,3
    202c:	1062019f 	beq	v1,v0,26ac <vxprintf+0xf10>
    2030:	24030002 	li	v1,2
    2034:	afa00000 	sw	zero,0(sp)
    2038:	afa0009c 	sw	zero,156(sp)
    203c:	afa300a0 	sw	v1,160(sp)
    2040:	8fa50094 	lw	a1,148(sp)
    2044:	241e0001 	li	s8,1
    2048:	2a830001 	slti	v1,s4,1
    204c:	0005102b 	sltu	v0,zero,a1
    2050:	0043f00b 	movn	s8,v0,v1
    2054:	8fa200a8 	lw	v0,168(sp)
    2058:	104001aa 	beqz	v0,2704 <vxprintf+0xf68>
    205c:	27b20008 	addiu	s2,sp,8
    2060:	27b20008 	addiu	s2,sp,8
    2064:	02402021 	move	a0,s2
    2068:	03a02821 	move	a1,sp
    206c:	a3a20010 	sb	v0,16(sp)
    2070:	0c0005b5 	jal	16d4 <getdigit>
    2074:	27b10011 	addiu	s1,sp,17
    2078:	27b30010 	addiu	s3,sp,16
    207c:	17c001a8 	bnez	s8,2720 <vxprintf+0xf84>
    2080:	a2220000 	sb	v0,0(s1)
    2084:	26310001 	addiu	s1,s1,1
    2088:	1a80000a 	blez	s4,20b4 <vxprintf+0x918>
    208c:	8fa3009c 	lw	v1,156(sp)
    2090:	0234a021 	addu	s4,s1,s4
    2094:	02402021 	move	a0,s2
    2098:	0c0005b5 	jal	16d4 <getdigit>
    209c:	03a02821 	move	a1,sp
    20a0:	a2220000 	sb	v0,0(s1)
    20a4:	26310001 	addiu	s1,s1,1
    20a8:	1634fffb 	bne	s1,s4,2098 <vxprintf+0x8fc>
    20ac:	02402021 	move	a0,s2
    20b0:	8fa3009c 	lw	v1,156(sp)
    20b4:	1060000c 	beqz	v1,20e8 <vxprintf+0x94c>
    20b8:	2622ffff 	addiu	v0,s1,-1
    20bc:	13c0000b 	beqz	s8,20ec <vxprintf+0x950>
    20c0:	8fa40084 	lw	a0,132(sp)
    20c4:	0053182b 	sltu	v1,v0,s3
    20c8:	14600007 	bnez	v1,20e8 <vxprintf+0x94c>
    20cc:	24040030 	li	a0,48
    20d0:	8223ffff 	lb	v1,-1(s1)
    20d4:	5064013d 	beql	v1,a0,25cc <vxprintf+0xe30>
    20d8:	a0400000 	sb	zero,0(v0)
    20dc:	2404002e 	li	a0,46
    20e0:	50640264 	beql	v1,a0,2a74 <vxprintf+0x12d8>
    20e4:	a0400000 	sb	zero,0(v0)
    20e8:	8fa40084 	lw	a0,132(sp)
    20ec:	38830002 	xori	v1,a0,0x2
    20f0:	2c630001 	sltiu	v1,v1,1
    20f4:	02e31825 	or	v1,s7,v1
    20f8:	1460013f 	bnez	v1,25f8 <vxprintf+0xe5c>
    20fc:	8fa40098 	lw	a0,152(sp)
    2100:	8fa300a0 	lw	v1,160(sp)
    2104:	24520001 	addiu	s2,v0,1
    2108:	afa30084 	sw	v1,132(sp)
    210c:	8fa20090 	lw	v0,144(sp)
    2110:	02539023 	subu	s2,s2,s3
    2114:	1040fe18 	beqz	v0,1978 <vxprintf+0x1dc>
    2118:	02608821 	move	s1,s3
    211c:	8fa30078 	lw	v1,120(sp)
    2120:	1460fe39 	bnez	v1,1a08 <vxprintf+0x26c>
    2124:	24140001 	li	s4,1
    2128:	8fa4008c 	lw	a0,140(sp)
    212c:	0244102a 	slt	v0,s2,a0
    2130:	10400018 	beqz	v0,2194 <vxprintf+0x9f8>
    2134:	00922823 	subu	a1,a0,s2
    2138:	0085102a 	slt	v0,a0,a1
    213c:	14400008 	bnez	v0,2160 <vxprintf+0x9c4>
    2140:	00000000 	nop
    2144:	02729021 	addu	s2,s3,s2
    2148:	27a4000f 	addiu	a0,sp,15
    214c:	82430000 	lb	v1,0(s2)
    2150:	02451021 	addu	v0,s2,a1
    2154:	2652ffff 	addiu	s2,s2,-1
    2158:	1644fffc 	bne	s2,a0,214c <vxprintf+0x9b0>
    215c:	a0430000 	sb	v1,0(v0)
    2160:	50a0000b 	beqzl	a1,2190 <vxprintf+0x9f4>
    2164:	8fb2008c 	lw	s2,140(sp)
    2168:	8fa300a8 	lw	v1,168(sp)
    216c:	0003102b 	sltu	v0,zero,v1
    2170:	02621021 	addu	v0,s3,v0
    2174:	00452821 	addu	a1,v0,a1
    2178:	24030030 	li	v1,48
    217c:	a0430000 	sb	v1,0(v0)
    2180:	24420001 	addiu	v0,v0,1
    2184:	5445fffe 	bnel	v0,a1,2180 <vxprintf+0x9e4>
    2188:	a0430000 	sb	v1,0(v0)
    218c:	8fb2008c 	lw	s2,140(sp)
    2190:	00002821 	move	a1,zero
    2194:	08000663 	j	198c <vxprintf+0x1f0>
    2198:	02608821 	move	s1,s3
    219c:	24020002 	li	v0,2
    21a0:	15020207 	bne	t0,v0,29c0 <vxprintf+0x1224>
    21a4:	8fa30098 	lw	v1,152(sp)
    21a8:	8fa50088 	lw	a1,136(sp)
    21ac:	8c62000c 	lw	v0,12(v1)
    21b0:	24a40007 	addiu	a0,a1,7
    21b4:	2403fff8 	li	v1,-8
    21b8:	00831824 	and	v1,a0,v1
    21bc:	8c7e0000 	lw	s8,0(v1)
    21c0:	8c720004 	lw	s2,4(v1)
    21c4:	24640008 	addiu	a0,v1,8
    21c8:	afa40088 	sw	a0,136(sp)
    21cc:	03d21825 	or	v1,s8,s2
    21d0:	106000d6 	beqz	v1,252c <vxprintf+0xd90>
    21d4:	8fa30098 	lw	v1,152(sp)
    21d8:	8fa50098 	lw	a1,152(sp)
    21dc:	8ca80004 	lw	t0,4(a1)
    21e0:	10400009 	beqz	v0,2208 <vxprintf+0xa6c>
    21e4:	afa0009c 	sw	zero,156(sp)
    21e8:	06420208 	bltzl	s2,2a0c <vxprintf+0x1270>
    21ec:	001ef023 	negu	s8,s8
    21f0:	2405002b 	li	a1,43
    21f4:	16600004 	bnez	s3,2208 <vxprintf+0xa6c>
    21f8:	afa5009c 	sw	a1,156(sp)
    21fc:	24030020 	li	v1,32
    2200:	0017180a 	movz	v1,zero,s7
    2204:	afa3009c 	sw	v1,156(sp)
    2208:	8fa40090 	lw	a0,144(sp)
    220c:	10800006 	beqz	a0,2228 <vxprintf+0xa8c>
    2210:	8fa40084 	lw	a0,132(sp)
    2214:	8fa5009c 	lw	a1,156(sp)
    2218:	8fa3008c 	lw	v1,140(sp)
    221c:	0005102b 	sltu	v0,zero,a1
    2220:	00621023 	subu	v0,v1,v0
    2224:	0282a02c 	max	s4,s4,v0
    2228:	2402000c 	li	v0,12
    222c:	10820140 	beq	a0,v0,2730 <vxprintf+0xf94>
    2230:	27a50074 	addiu	a1,sp,116
    2234:	afa50090 	sw	a1,144(sp)
    2238:	00a08821 	move	s1,a1
    223c:	8fa20098 	lw	v0,152(sp)
    2240:	00089fc3 	sra	s3,t0,0x1f
    2244:	afb000a0 	sw	s0,160(sp)
    2248:	8c570008 	lw	s7,8(v0)
    224c:	02e08021 	move	s0,s7
    2250:	0260b821 	move	s7,s3
    2254:	01009821 	move	s3,t0
    2258:	03c02021 	move	a0,s8
    225c:	02402821 	move	a1,s2
    2260:	02603021 	move	a2,s3
    2264:	0c000d8e 	jal	3638 <__umoddi3>
    2268:	02e03821 	move	a3,s7
    226c:	02021021 	addu	v0,s0,v0
    2270:	80420000 	lb	v0,0(v0)
    2274:	2631ffff 	addiu	s1,s1,-1
    2278:	02402821 	move	a1,s2
    227c:	03c02021 	move	a0,s8
    2280:	a2220000 	sb	v0,0(s1)
    2284:	02603021 	move	a2,s3
    2288:	0c000c07 	jal	301c <__udivdi3>
    228c:	02e03821 	move	a3,s7
    2290:	0040f021 	move	s8,v0
    2294:	00431025 	or	v0,v0,v1
    2298:	1440ffef 	bnez	v0,2258 <vxprintf+0xabc>
    229c:	00609021 	move	s2,v1
    22a0:	8fa30098 	lw	v1,152(sp)
    22a4:	8fa40090 	lw	a0,144(sp)
    22a8:	8fa50094 	lw	a1,148(sp)
    22ac:	8c620000 	lw	v0,0(v1)
    22b0:	00911823 	subu	v1,a0,s1
    22b4:	24040008 	li	a0,8
    22b8:	38420070 	xori	v0,v0,0x70
    22bc:	0082a00a 	movz	s4,a0,v0
    22c0:	0283a023 	subu	s4,s4,v1
    22c4:	24030001 	li	v1,1
    22c8:	0062280a 	movz	a1,v1,v0
    22cc:	8fb000a0 	lw	s0,160(sp)
    22d0:	1a800007 	blez	s4,22f0 <vxprintf+0xb54>
    22d4:	afa50094 	sw	a1,148(sp)
    22d8:	02348823 	subu	s1,s1,s4
    22dc:	24030030 	li	v1,48
    22e0:	02341021 	addu	v0,s1,s4
    22e4:	2694ffff 	addiu	s4,s4,-1
    22e8:	1680fffd 	bnez	s4,22e0 <vxprintf+0xb44>
    22ec:	a043ffff 	sb	v1,-1(v0)
    22f0:	8fa2009c 	lw	v0,156(sp)
    22f4:	10400004 	beqz	v0,2308 <vxprintf+0xb6c>
    22f8:	8fa30094 	lw	v1,148(sp)
    22fc:	a222ffff 	sb	v0,-1(s1)
    2300:	2631ffff 	addiu	s1,s1,-1
    2304:	8fa30094 	lw	v1,148(sp)
    2308:	50600013 	beqzl	v1,2358 <vxprintf+0xbbc>
    230c:	8fa50090 	lw	a1,144(sp)
    2310:	8fa40098 	lw	a0,152(sp)
    2314:	8c830010 	lw	v1,16(a0)
    2318:	5060000f 	beqzl	v1,2358 <vxprintf+0xbbc>
    231c:	8fa50090 	lw	a1,144(sp)
    2320:	80620000 	lb	v0,0(v1)
    2324:	82240000 	lb	a0,0(s1)
    2328:	5082000b 	beql	a0,v0,2358 <vxprintf+0xbbc>
    232c:	8fa50090 	lw	a1,144(sp)
    2330:	50400009 	beqzl	v0,2358 <vxprintf+0xbbc>
    2334:	8fa50090 	lw	a1,144(sp)
    2338:	24630001 	addiu	v1,v1,1
    233c:	2631ffff 	addiu	s1,s1,-1
    2340:	a2220000 	sb	v0,0(s1)
    2344:	24630001 	addiu	v1,v1,1
    2348:	8062ffff 	lb	v0,-1(v1)
    234c:	5440fffc 	bnezl	v0,2340 <vxprintf+0xba4>
    2350:	2631ffff 	addiu	s1,s1,-1
    2354:	8fa50090 	lw	a1,144(sp)
    2358:	0800065e 	j	1978 <vxprintf+0x1dc>
    235c:	00b19023 	subu	s2,a1,s1
    2360:	8fa20088 	lw	v0,136(sp)
    2364:	00009021 	move	s2,zero
    2368:	2406005e 	li	a2,94
    236c:	24470004 	addiu	a3,v0,4
    2370:	080008e8 	j	23a0 <vxprintf+0xc04>
    2374:	8c430000 	lw	v1,0(v0)
    2378:	3042001f 	andi	v0,v0,0x1f
    237c:	26520001 	addiu	s2,s2,1
    2380:	03b22021 	addu	a0,sp,s2
    2384:	24420040 	addiu	v0,v0,64
    2388:	26520001 	addiu	s2,s2,1
    238c:	a0a60010 	sb	a2,16(a1)
    2390:	a0820010 	sb	v0,16(a0)
    2394:	2a420063 	slti	v0,s2,99
    2398:	1040000e 	beqz	v0,23d4 <vxprintf+0xc38>
    239c:	00000000 	nop
    23a0:	80620000 	lb	v0,0(v1)
    23a4:	1040000b 	beqz	v0,23d4 <vxprintf+0xc38>
    23a8:	24630001 	addiu	v1,v1,1
    23ac:	2444ffe0 	addiu	a0,v0,-32
    23b0:	2c84005f 	sltiu	a0,a0,95
    23b4:	1080fff0 	beqz	a0,2378 <vxprintf+0xbdc>
    23b8:	03b22821 	addu	a1,sp,s2
    23bc:	03b22021 	addu	a0,sp,s2
    23c0:	26520001 	addiu	s2,s2,1
    23c4:	a0820010 	sb	v0,16(a0)
    23c8:	2a420063 	slti	v0,s2,99
    23cc:	5440fff5 	bnezl	v0,23a4 <vxprintf+0xc08>
    23d0:	80620000 	lb	v0,0(v1)
    23d4:	06800003 	bltz	s4,23e4 <vxprintf+0xc48>
    23d8:	0292102a 	slt	v0,s4,s2
    23dc:	54400001 	bnezl	v0,23e4 <vxprintf+0xc48>
    23e0:	02809021 	move	s2,s4
    23e4:	afa70088 	sw	a3,136(sp)
    23e8:	0800065e 	j	1978 <vxprintf+0x1dc>
    23ec:	27b10010 	addiu	s1,sp,16
    23f0:	02802821 	move	a1,s4
    23f4:	02002021 	move	a0,s0
    23f8:	02c0f809 	jalr	s6
    23fc:	02a03021 	move	a2,s5
    2400:	8fa5007c 	lw	a1,124(sp)
    2404:	8fbf00dc 	lw	ra,220(sp)
    2408:	8fbe00d8 	lw	s8,216(sp)
    240c:	00b42821 	addu	a1,a1,s4
    2410:	afa5007c 	sw	a1,124(sp)
    2414:	8fa2007c 	lw	v0,124(sp)
    2418:	8fb700d4 	lw	s7,212(sp)
    241c:	8fb600d0 	lw	s6,208(sp)
    2420:	8fb500cc 	lw	s5,204(sp)
    2424:	8fb400c8 	lw	s4,200(sp)
    2428:	8fb300c4 	lw	s3,196(sp)
    242c:	8fb200c0 	lw	s2,192(sp)
    2430:	8fb100bc 	lw	s1,188(sp)
    2434:	8fb000b8 	lw	s0,184(sp)
    2438:	03e00008 	jr	ra
    243c:	27bd00e0 	addiu	sp,sp,224
    2440:	82020001 	lb	v0,1(s0)
    2444:	50430030 	beql	v0,v1,2508 <vxprintf+0xd6c>
    2448:	82020002 	lb	v0,2(s0)
    244c:	26100001 	addiu	s0,s0,1
    2450:	08000642 	j	1908 <vxprintf+0x16c>
    2454:	24080001 	li	t0,1
    2458:	82020001 	lb	v0,1(s0)
    245c:	2403002a 	li	v1,42
    2460:	1043001d 	beq	v0,v1,24d8 <vxprintf+0xd3c>
    2464:	2443ffd0 	addiu	v1,v0,-48
    2468:	2c63000a 	sltiu	v1,v1,10
    246c:	26100001 	addiu	s0,s0,1
    2470:	1060fd22 	beqz	v1,18fc <vxprintf+0x160>
    2474:	0000a021 	move	s4,zero
    2478:	00141840 	sll	v1,s4,0x1
    247c:	0014a0c0 	sll	s4,s4,0x3
    2480:	0074a021 	addu	s4,v1,s4
    2484:	26100001 	addiu	s0,s0,1
    2488:	0282a021 	addu	s4,s4,v0
    248c:	82020000 	lb	v0,0(s0)
    2490:	2443ffd0 	addiu	v1,v0,-48
    2494:	2c63000a 	sltiu	v1,v1,10
    2498:	1460fff7 	bnez	v1,2478 <vxprintf+0xcdc>
    249c:	2694ffd0 	addiu	s4,s4,-48
    24a0:	2403003c 	li	v1,60
    24a4:	0800063f 	j	18fc <vxprintf+0x160>
    24a8:	0283a02d 	min	s4,s4,v1
    24ac:	8fa20088 	lw	v0,136(sp)
    24b0:	8c430000 	lw	v1,0(v0)
    24b4:	04600017 	bltz	v1,2514 <vxprintf+0xd78>
    24b8:	24440004 	addiu	a0,v0,4
    24bc:	2405005a 	li	a1,90
    24c0:	0065282d 	min	a1,v1,a1
    24c4:	82020001 	lb	v0,1(s0)
    24c8:	afa5008c 	sw	a1,140(sp)
    24cc:	26100001 	addiu	s0,s0,1
    24d0:	0800063c 	j	18f0 <vxprintf+0x154>
    24d4:	afa40088 	sw	a0,136(sp)
    24d8:	8fa20088 	lw	v0,136(sp)
    24dc:	8fa40088 	lw	a0,136(sp)
    24e0:	8c430000 	lw	v1,0(v0)
    24e4:	24840004 	addiu	a0,a0,4
    24e8:	82020002 	lb	v0,2(s0)
    24ec:	0003a023 	negu	s4,v1
    24f0:	0074a02c 	max	s4,v1,s4
    24f4:	2403003c 	li	v1,60
    24f8:	afa40088 	sw	a0,136(sp)
    24fc:	26100002 	addiu	s0,s0,2
    2500:	0800063f 	j	18fc <vxprintf+0x160>
    2504:	0283a02d 	min	s4,s4,v1
    2508:	24080002 	li	t0,2
    250c:	08000642 	j	1908 <vxprintf+0x16c>
    2510:	26100002 	addiu	s0,s0,2
    2514:	24050001 	li	a1,1
    2518:	00031823 	negu	v1,v1
    251c:	0800092f 	j	24bc <vxprintf+0xd20>
    2520:	afa50078 	sw	a1,120(sp)
    2524:	0800063c 	j	18f0 <vxprintf+0x154>
    2528:	afa0008c 	sw	zero,140(sp)
    252c:	8fa40094 	lw	a0,148(sp)
    2530:	8c680004 	lw	t0,4(v1)
    2534:	39030008 	xori	v1,t0,0x8
    2538:	0003200a 	movz	a0,zero,v1
    253c:	08000878 	j	21e0 <vxprintf+0xa44>
    2540:	afa40094 	sw	a0,148(sp)
    2544:	24050001 	li	a1,1
    2548:	02c0f809 	jalr	s6
    254c:	02a03021 	move	a2,s5
    2550:	8fa4007c 	lw	a0,124(sp)
    2554:	24050008 	li	a1,8
    2558:	2610ffff 	addiu	s0,s0,-1
    255c:	24840001 	addiu	a0,a0,1
    2560:	afa4007c 	sw	a0,124(sp)
    2564:	0800065e 	j	1978 <vxprintf+0x1dc>
    2568:	afa50084 	sw	a1,132(sp)
    256c:	1660fdd1 	bnez	s3,1cb4 <vxprintf+0x518>
    2570:	afa400a8 	sw	a0,168(sp)
    2574:	8fa30084 	lw	v1,132(sp)
    2578:	24050020 	li	a1,32
    257c:	0017280a 	movz	a1,zero,s7
    2580:	24020003 	li	v0,3
    2584:	1462fdcf 	bne	v1,v0,1cc4 <vxprintf+0x528>
    2588:	afa500a8 	sw	a1,168(sp)
    258c:	1280012d 	beqz	s4,2a44 <vxprintf+0x12a8>
    2590:	3c020000 	lui	v0,0x0
    2594:	2694ffff 	addiu	s4,s4,-1
    2598:	2a820014 	slti	v0,s4,20
    259c:	5040fdcd 	beqzl	v0,1cd4 <vxprintf+0x538>
    25a0:	24130013 	li	s3,19
    25a4:	1680fdcb 	bnez	s4,1cd4 <vxprintf+0x538>
    25a8:	02809821 	move	s3,s4
    25ac:	3c020000 	lui	v0,0x0
    25b0:	8c425644 	lw	v0,22084(v0)
    25b4:	afa0009c 	sw	zero,156(sp)
    25b8:	08000747 	j	1d1c <vxprintf+0x580>
    25bc:	afa200a0 	sw	v0,160(sp)
    25c0:	5464fec7 	bnel	v1,a0,20e0 <vxprintf+0x944>
    25c4:	2404002e 	li	a0,46
    25c8:	a0400000 	sb	zero,0(v0)
    25cc:	2442ffff 	addiu	v0,v0,-1
    25d0:	0053182b 	sltu	v1,v0,s3
    25d4:	5060fffa 	beqzl	v1,25c0 <vxprintf+0xe24>
    25d8:	80430000 	lb	v1,0(v0)
    25dc:	8fa40084 	lw	a0,132(sp)
    25e0:	38830002 	xori	v1,a0,0x2
    25e4:	2c630001 	sltiu	v1,v1,1
    25e8:	02e31825 	or	v1,s7,v1
    25ec:	1060fec5 	beqz	v1,2104 <vxprintf+0x968>
    25f0:	8fa300a0 	lw	v1,160(sp)
    25f4:	8fa40098 	lw	a0,152(sp)
    25f8:	8c830008 	lw	v1,8(a0)
    25fc:	80630000 	lb	v1,0(v1)
    2600:	06e0010b 	bltz	s7,2a30 <vxprintf+0x1294>
    2604:	a0430001 	sb	v1,1(v0)
    2608:	2403002b 	li	v1,43
    260c:	a0430002 	sb	v1,2(v0)
    2610:	24420003 	addiu	v0,v0,3
    2614:	2ae30064 	slti	v1,s7,100
    2618:	14600012 	bnez	v1,2664 <vxprintf+0xec8>
    261c:	3c036666 	lui	v1,0x6666
    2620:	3c0351eb 	lui	v1,0x51eb
    2624:	3463851f 	ori	v1,v1,0x851f
    2628:	02e30018 	mult	s7,v1
    262c:	001727c3 	sra	a0,s7,0x1f
    2630:	00001810 	mfhi	v1
    2634:	00031943 	sra	v1,v1,0x5
    2638:	00641823 	subu	v1,v1,a0
    263c:	00032880 	sll	a1,v1,0x2
    2640:	00032100 	sll	a0,v1,0x4
    2644:	00a42021 	addu	a0,a1,a0
    2648:	00042880 	sll	a1,a0,0x2
    264c:	24630030 	addiu	v1,v1,48
    2650:	00852021 	addu	a0,a0,a1
    2654:	a0430000 	sb	v1,0(v0)
    2658:	02e4b823 	subu	s7,s7,a0
    265c:	24420001 	addiu	v0,v0,1
    2660:	3c036666 	lui	v1,0x6666
    2664:	24636667 	addiu	v1,v1,26215
    2668:	02e30018 	mult	s7,v1
    266c:	8fa500a0 	lw	a1,160(sp)
    2670:	001727c3 	sra	a0,s7,0x1f
    2674:	24520002 	addiu	s2,v0,2
    2678:	afa50084 	sw	a1,132(sp)
    267c:	00001810 	mfhi	v1
    2680:	00031883 	sra	v1,v1,0x2
    2684:	00641823 	subu	v1,v1,a0
    2688:	00032840 	sll	a1,v1,0x1
    268c:	000320c0 	sll	a0,v1,0x3
    2690:	00a42021 	addu	a0,a1,a0
    2694:	02e4b823 	subu	s7,s7,a0
    2698:	24630030 	addiu	v1,v1,48
    269c:	26f70030 	addiu	s7,s7,48
    26a0:	a0430000 	sb	v1,0(v0)
    26a4:	08000843 	j	210c <vxprintf+0x970>
    26a8:	a0570001 	sb	s7,1(v0)
    26ac:	8fa30094 	lw	v1,148(sp)
    26b0:	2ae2fffc 	slti	v0,s7,-4
    26b4:	38630001 	xori	v1,v1,0x1
    26b8:	14400007 	bnez	v0,26d8 <vxprintf+0xf3c>
    26bc:	afa3009c 	sw	v1,156(sp)
    26c0:	0297102a 	slt	v0,s4,s7
    26c4:	14400005 	bnez	v0,26dc <vxprintf+0xf40>
    26c8:	8fa50094 	lw	a1,148(sp)
    26cc:	0297a023 	subu	s4,s4,s7
    26d0:	08000a17 	j	285c <vxprintf+0x10c0>
    26d4:	afa00000 	sw	zero,0(sp)
    26d8:	8fa50094 	lw	a1,148(sp)
    26dc:	24030002 	li	v1,2
    26e0:	afa300a0 	sw	v1,160(sp)
    26e4:	0005102b 	sltu	v0,zero,a1
    26e8:	241e0001 	li	s8,1
    26ec:	2a830001 	slti	v1,s4,1
    26f0:	0043f00b 	movn	s8,v0,v1
    26f4:	8fa200a8 	lw	v0,168(sp)
    26f8:	1440fe59 	bnez	v0,2060 <vxprintf+0x8c4>
    26fc:	afa00000 	sw	zero,0(sp)
    2700:	27b20008 	addiu	s2,sp,8
    2704:	27b30010 	addiu	s3,sp,16
    2708:	02402021 	move	a0,s2
    270c:	03a02821 	move	a1,sp
    2710:	0c0005b5 	jal	16d4 <getdigit>
    2714:	02608821 	move	s1,s3
    2718:	13c0fe5a 	beqz	s8,2084 <vxprintf+0x8e8>
    271c:	a2220000 	sb	v0,0(s1)
    2720:	2402002e 	li	v0,46
    2724:	a2220001 	sb	v0,1(s1)
    2728:	08000822 	j	2088 <vxprintf+0x8ec>
    272c:	26310002 	addiu	s1,s1,2
    2730:	03c02021 	move	a0,s8
    2734:	02402821 	move	a1,s2
    2738:	2406000a 	li	a2,10
    273c:	00003821 	move	a3,zero
    2740:	0c000d8e 	jal	3638 <__umoddi3>
    2744:	afa800b0 	sw	t0,176(sp)
    2748:	00408821 	move	s1,v0
    274c:	10400019 	beqz	v0,27b4 <vxprintf+0x1018>
    2750:	8fa800b0 	lw	t0,176(sp)
    2754:	28420004 	slti	v0,v0,4
    2758:	10400017 	beqz	v0,27b8 <vxprintf+0x101c>
    275c:	24020074 	li	v0,116
    2760:	03c02021 	move	a0,s8
    2764:	02402821 	move	a1,s2
    2768:	24060064 	li	a2,100
    276c:	0c000d8e 	jal	3638 <__umoddi3>
    2770:	00003821 	move	a3,zero
    2774:	2442fff5 	addiu	v0,v0,-11
    2778:	2c420003 	sltiu	v0,v0,3
    277c:	1440000d 	bnez	v0,27b4 <vxprintf+0x1018>
    2780:	8fa800b0 	lw	t0,176(sp)
    2784:	24020001 	li	v0,1
    2788:	122200bc 	beq	s1,v0,2a7c <vxprintf+0x12e0>
    278c:	24020002 	li	v0,2
    2790:	122200ce 	beq	s1,v0,2acc <vxprintf+0x1330>
    2794:	24020072 	li	v0,114
    2798:	a3a20072 	sb	v0,114(sp)
    279c:	27a40074 	addiu	a0,sp,116
    27a0:	24020064 	li	v0,100
    27a4:	a3a20073 	sb	v0,115(sp)
    27a8:	27b10072 	addiu	s1,sp,114
    27ac:	0800088f 	j	223c <vxprintf+0xaa0>
    27b0:	afa40090 	sw	a0,144(sp)
    27b4:	24020074 	li	v0,116
    27b8:	a3a20072 	sb	v0,114(sp)
    27bc:	27a50074 	addiu	a1,sp,116
    27c0:	24020068 	li	v0,104
    27c4:	a3a20073 	sb	v0,115(sp)
    27c8:	27b10072 	addiu	s1,sp,114
    27cc:	0800088f 	j	223c <vxprintf+0xaa0>
    27d0:	afa50090 	sw	a1,144(sp)
    27d4:	8fa300a0 	lw	v1,160(sp)
    27d8:	02402021 	move	a0,s2
    27dc:	02202821 	move	a1,s1
    27e0:	00403021 	move	a2,v0
    27e4:	0c000fef 	jal	3fbc <__adddf3>
    27e8:	00603821 	move	a3,v1
    27ec:	00409021 	move	s2,v0
    27f0:	00608821 	move	s1,v1
    27f4:	afa20008 	sw	v0,8(sp)
    27f8:	0800074b 	j	1d2c <vxprintf+0x590>
    27fc:	afa3000c 	sw	v1,12(sp)
    2800:	80830000 	lb	v1,0(a0)
    2804:	24840004 	addiu	a0,a0,4
    2808:	afa40088 	sw	a0,136(sp)
    280c:	0681fce8 	bgez	s4,1bb0 <vxprintf+0x414>
    2810:	a3a30010 	sb	v1,16(sp)
    2814:	24120001 	li	s2,1
    2818:	0800065e 	j	1978 <vxprintf+0x1dc>
    281c:	27b10010 	addiu	s1,sp,16
    2820:	3c040000 	lui	a0,0x0
    2824:	24845530 	addiu	a0,a0,21808
    2828:	24050001 	li	a1,1
    282c:	02c0f809 	jalr	s6
    2830:	02a03021 	move	a2,s5
    2834:	2403ffff 	li	v1,-1
    2838:	080006ab 	j	1aac <vxprintf+0x310>
    283c:	afa3007c 	sw	v1,124(sp)
    2840:	3c110000 	lui	s1,0x0
    2844:	afb20008 	sw	s2,8(sp)
    2848:	2631552c 	addiu	s1,s1,21804
    284c:	0800065e 	j	1978 <vxprintf+0x1dc>
    2850:	24120003 	li	s2,3
    2854:	afa00000 	sw	zero,0(sp)
    2858:	afa0009c 	sw	zero,156(sp)
    285c:	02f41021 	addu	v0,s7,s4
    2860:	24030001 	li	v1,1
    2864:	28420046 	slti	v0,v0,70
    2868:	1040fdf5 	beqz	v0,2040 <vxprintf+0x8a4>
    286c:	afa300a0 	sw	v1,160(sp)
    2870:	8fa40094 	lw	a0,148(sp)
    2874:	2a830001 	slti	v1,s4,1
    2878:	24050001 	li	a1,1
    287c:	0004102b 	sltu	v0,zero,a0
    2880:	0043280b 	movn	a1,v0,v1
    2884:	8fa200a8 	lw	v0,168(sp)
    2888:	10400072 	beqz	v0,2a54 <vxprintf+0x12b8>
    288c:	afa50094 	sw	a1,148(sp)
    2890:	27a30011 	addiu	v1,sp,17
    2894:	a3a20010 	sb	v0,16(sp)
    2898:	afa30084 	sw	v1,132(sp)
    289c:	27b30010 	addiu	s3,sp,16
    28a0:	06e0006f 	bltz	s7,2a60 <vxprintf+0x12c4>
    28a4:	8fa30084 	lw	v1,132(sp)
    28a8:	8fb10084 	lw	s1,132(sp)
    28ac:	02e0f021 	move	s8,s7
    28b0:	27b20008 	addiu	s2,sp,8
    28b4:	02402021 	move	a0,s2
    28b8:	0c0005b5 	jal	16d4 <getdigit>
    28bc:	03a02821 	move	a1,sp
    28c0:	27deffff 	addiu	s8,s8,-1
    28c4:	2404ffff 	li	a0,-1
    28c8:	a2220000 	sb	v0,0(s1)
    28cc:	17c4fff9 	bne	s8,a0,28b4 <vxprintf+0x1118>
    28d0:	26310001 	addiu	s1,s1,1
    28d4:	8fa30084 	lw	v1,132(sp)
    28d8:	26f10001 	addiu	s1,s7,1
    28dc:	0000b821 	move	s7,zero
    28e0:	00718821 	addu	s1,v1,s1
    28e4:	8fa30094 	lw	v1,148(sp)
    28e8:	10600003 	beqz	v1,28f8 <vxprintf+0x115c>
    28ec:	2402002e 	li	v0,46
    28f0:	a2220000 	sb	v0,0(s1)
    28f4:	26310001 	addiu	s1,s1,1
    28f8:	12e0000c 	beqz	s7,292c <vxprintf+0x1190>
    28fc:	00000000 	nop
    2900:	1a800015 	blez	s4,2958 <vxprintf+0x11bc>
    2904:	24020030 	li	v0,48
    2908:	08000a47 	j	291c <vxprintf+0x1180>
    290c:	26f70001 	addiu	s7,s7,1
    2910:	12800012 	beqz	s4,295c <vxprintf+0x11c0>
    2914:	8fa3009c 	lw	v1,156(sp)
    2918:	26f70001 	addiu	s7,s7,1
    291c:	a2220000 	sb	v0,0(s1)
    2920:	2694ffff 	addiu	s4,s4,-1
    2924:	16e0fffa 	bnez	s7,2910 <vxprintf+0x1174>
    2928:	26310001 	addiu	s1,s1,1
    292c:	1a80000b 	blez	s4,295c <vxprintf+0x11c0>
    2930:	8fa3009c 	lw	v1,156(sp)
    2934:	0234a021 	addu	s4,s1,s4
    2938:	27b20008 	addiu	s2,sp,8
    293c:	02402021 	move	a0,s2
    2940:	0c0005b5 	jal	16d4 <getdigit>
    2944:	03a02821 	move	a1,sp
    2948:	a2220000 	sb	v0,0(s1)
    294c:	26310001 	addiu	s1,s1,1
    2950:	1634fffb 	bne	s1,s4,2940 <vxprintf+0x11a4>
    2954:	02402021 	move	a0,s2
    2958:	8fa3009c 	lw	v1,156(sp)
    295c:	a2200000 	sb	zero,0(s1)
    2960:	10600013 	beqz	v1,29b0 <vxprintf+0x1214>
    2964:	2622ffff 	addiu	v0,s1,-1
    2968:	8fa30094 	lw	v1,148(sp)
    296c:	10600011 	beqz	v1,29b4 <vxprintf+0x1218>
    2970:	24040001 	li	a0,1
    2974:	0053182b 	sltu	v1,v0,s3
    2978:	1460000d 	bnez	v1,29b0 <vxprintf+0x1214>
    297c:	24040030 	li	a0,48
    2980:	8223ffff 	lb	v1,-1(s1)
    2984:	50640006 	beql	v1,a0,29a0 <vxprintf+0x1204>
    2988:	a0400000 	sb	zero,0(v0)
    298c:	08000aae 	j	2ab8 <vxprintf+0x131c>
    2990:	2404002e 	li	a0,46
    2994:	54640048 	bnel	v1,a0,2ab8 <vxprintf+0x131c>
    2998:	2404002e 	li	a0,46
    299c:	a0400000 	sb	zero,0(v0)
    29a0:	2442ffff 	addiu	v0,v0,-1
    29a4:	0053182b 	sltu	v1,v0,s3
    29a8:	5060fffa 	beqzl	v1,2994 <vxprintf+0x11f8>
    29ac:	80430000 	lb	v1,0(v0)
    29b0:	24040001 	li	a0,1
    29b4:	24520001 	addiu	s2,v0,1
    29b8:	08000843 	j	210c <vxprintf+0x970>
    29bc:	afa40084 	sw	a0,132(sp)
    29c0:	8fa50098 	lw	a1,152(sp)
    29c4:	8ca2000c 	lw	v0,12(a1)
    29c8:	10400007 	beqz	v0,29e8 <vxprintf+0x124c>
    29cc:	8fa40088 	lw	a0,136(sp)
    29d0:	8fa30088 	lw	v1,136(sp)
    29d4:	8c7e0000 	lw	s8,0(v1)
    29d8:	24630004 	addiu	v1,v1,4
    29dc:	afa30088 	sw	v1,136(sp)
    29e0:	08000873 	j	21cc <vxprintf+0xa30>
    29e4:	001e97c3 	sra	s2,s8,0x1f
    29e8:	00009021 	move	s2,zero
    29ec:	8c9e0000 	lw	s8,0(a0)
    29f0:	24840004 	addiu	a0,a0,4
    29f4:	08000873 	j	21cc <vxprintf+0xa30>
    29f8:	afa40088 	sw	a0,136(sp)
    29fc:	3c110000 	lui	s1,0x0
    2a00:	24120006 	li	s2,6
    2a04:	08000705 	j	1c14 <vxprintf+0x478>
    2a08:	26315524 	addiu	s1,s1,21796
    2a0c:	001e102b 	sltu	v0,zero,s8
    2a10:	00129023 	negu	s2,s2
    2a14:	02429023 	subu	s2,s2,v0
    2a18:	2402002d 	li	v0,45
    2a1c:	08000882 	j	2208 <vxprintf+0xa6c>
    2a20:	afa2009c 	sw	v0,156(sp)
    2a24:	24120003 	li	s2,3
    2a28:	0800065e 	j	1978 <vxprintf+0x1dc>
    2a2c:	2631552c 	addiu	s1,s1,21804
    2a30:	2403002d 	li	v1,45
    2a34:	a0430002 	sb	v1,2(v0)
    2a38:	0017b823 	negu	s7,s7
    2a3c:	08000985 	j	2614 <vxprintf+0xe78>
    2a40:	24420003 	addiu	v0,v0,3
    2a44:	8c425644 	lw	v0,22084(v0)
    2a48:	afa0009c 	sw	zero,156(sp)
    2a4c:	0800074b 	j	1d2c <vxprintf+0x590>
    2a50:	afa200a0 	sw	v0,160(sp)
    2a54:	27b30010 	addiu	s3,sp,16
    2a58:	08000a28 	j	28a0 <vxprintf+0x1104>
    2a5c:	afb30084 	sw	s3,132(sp)
    2a60:	24020030 	li	v0,48
    2a64:	26f70001 	addiu	s7,s7,1
    2a68:	a0620000 	sb	v0,0(v1)
    2a6c:	08000a39 	j	28e4 <vxprintf+0x1148>
    2a70:	24710001 	addiu	s1,v1,1
    2a74:	0800083a 	j	20e8 <vxprintf+0x94c>
    2a78:	2442ffff 	addiu	v0,v0,-1
    2a7c:	24020073 	li	v0,115
    2a80:	a3a20072 	sb	v0,114(sp)
    2a84:	24020074 	li	v0,116
    2a88:	a3a20073 	sb	v0,115(sp)
    2a8c:	27a20074 	addiu	v0,sp,116
    2a90:	27b10072 	addiu	s1,sp,114
    2a94:	0800088f 	j	223c <vxprintf+0xaa0>
    2a98:	afa20090 	sw	v0,144(sp)
    2a9c:	00009821 	move	s3,zero
    2aa0:	0000b821 	move	s7,zero
    2aa4:	08000777 	j	1ddc <vxprintf+0x640>
    2aa8:	afa400ac 	sw	a0,172(sp)
    2aac:	02809021 	move	s2,s4
    2ab0:	0800065e 	j	1978 <vxprintf+0x1dc>
    2ab4:	27b10010 	addiu	s1,sp,16
    2ab8:	1464ffbe 	bne	v1,a0,29b4 <vxprintf+0x1218>
    2abc:	24040001 	li	a0,1
    2ac0:	a0400000 	sb	zero,0(v0)
    2ac4:	08000a6d 	j	29b4 <vxprintf+0x1218>
    2ac8:	2442ffff 	addiu	v0,v0,-1
    2acc:	2402006e 	li	v0,110
    2ad0:	a3a20072 	sb	v0,114(sp)
    2ad4:	27a30074 	addiu	v1,sp,116
    2ad8:	24020064 	li	v0,100
    2adc:	a3a20073 	sb	v0,115(sp)
    2ae0:	27b10072 	addiu	s1,sp,114
    2ae4:	0800088f 	j	223c <vxprintf+0xaa0>
    2ae8:	afa30090 	sw	v1,144(sp)

00002aec <__sout>:
    2aec:	8cc20004 	lw	v0,4(a2)
    2af0:	10400011 	beqz	v0,2b38 <__sout+0x4c>
    2af4:	8cc30000 	lw	v1,0(a2)
    2af8:	18a0000c 	blez	a1,2b2c <__sout+0x40>
    2afc:	0062382b 	sltu	a3,v1,v0
    2b00:	50e0000b 	beqzl	a3,2b30 <__sout+0x44>
    2b04:	a0600000 	sb	zero,0(v1)
    2b08:	08000ac6 	j	2b18 <__sout+0x2c>
    2b0c:	00852821 	addu	a1,a0,a1
    2b10:	50620007 	beql	v1,v0,2b30 <__sout+0x44>
    2b14:	a0600000 	sb	zero,0(v1)
    2b18:	80870000 	lb	a3,0(a0)
    2b1c:	24840001 	addiu	a0,a0,1
    2b20:	a0670000 	sb	a3,0(v1)
    2b24:	1485fffa 	bne	a0,a1,2b10 <__sout+0x24>
    2b28:	24630001 	addiu	v1,v1,1
    2b2c:	a0600000 	sb	zero,0(v1)
    2b30:	03e00008 	jr	ra
    2b34:	acc30000 	sw	v1,0(a2)
    2b38:	58a0fffd 	blezl	a1,2b30 <__sout+0x44>
    2b3c:	a0600000 	sb	zero,0(v1)
    2b40:	00652821 	addu	a1,v1,a1
    2b44:	80820000 	lb	v0,0(a0)
    2b48:	a0620000 	sb	v0,0(v1)
    2b4c:	24630001 	addiu	v1,v1,1
    2b50:	1465fffc 	bne	v1,a1,2b44 <__sout+0x58>
    2b54:	24840001 	addiu	a0,a0,1
    2b58:	a0600000 	sb	zero,0(v1)
    2b5c:	03e00008 	jr	ra
    2b60:	acc30000 	sw	v1,0(a2)

00002b64 <free>:
    2b64:	27bdfff0 	addiu	sp,sp,-16
    2b68:	afbf000c 	sw	ra,12(sp)
    2b6c:	1080001a 	beqz	a0,2bd8 <free+0x74>
    2b70:	afb00008 	sw	s0,8(sp)
    2b74:	0c000b1b 	jal	2c6c <_pspsdk_alloc_lock>
    2b78:	afa40000 	sw	a0,0(sp)
    2b7c:	3c020000 	lui	v0,0x0
    2b80:	8c505bc0 	lw	s0,23488(v0)
    2b84:	12000010 	beqz	s0,2bc8 <free+0x64>
    2b88:	8fa40000 	lw	a0,0(sp)
    2b8c:	8e030000 	lw	v1,0(s0)
    2b90:	50640015 	beql	v1,a0,2be8 <free+0x84>
    2b94:	8e05000c 	lw	a1,12(s0)
    2b98:	8e10000c 	lw	s0,12(s0)
    2b9c:	1200000b 	beqz	s0,2bcc <free+0x68>
    2ba0:	8fbf000c 	lw	ra,12(sp)
    2ba4:	8e020000 	lw	v0,0(s0)
    2ba8:	5444fffc 	bnel	v0,a0,2b9c <free+0x38>
    2bac:	8e10000c 	lw	s0,12(s0)
    2bb0:	8e02000c 	lw	v0,12(s0)
    2bb4:	10400014 	beqz	v0,2c08 <free+0xa4>
    2bb8:	8e030008 	lw	v1,8(s0)
    2bbc:	ac430008 	sw	v1,8(v0)
    2bc0:	8e030008 	lw	v1,8(s0)
    2bc4:	ac62000c 	sw	v0,12(v1)
    2bc8:	8fbf000c 	lw	ra,12(sp)
    2bcc:	8fb00008 	lw	s0,8(sp)
    2bd0:	08000b1d 	j	2c74 <_pspsdk_alloc_unlock>
    2bd4:	27bd0010 	addiu	sp,sp,16
    2bd8:	8fbf000c 	lw	ra,12(sp)
    2bdc:	8fb00008 	lw	s0,8(sp)
    2be0:	03e00008 	jr	ra
    2be4:	27bd0010 	addiu	sp,sp,16
    2be8:	8e040004 	lw	a0,4(s0)
    2bec:	10a00014 	beqz	a1,2c40 <free+0xdc>
    2bf0:	ac455bc0 	sw	a1,23488(v0)
    2bf4:	8fbf000c 	lw	ra,12(sp)
    2bf8:	8fb00008 	lw	s0,8(sp)
    2bfc:	aca00008 	sw	zero,8(a1)
    2c00:	08000b1d 	j	2c74 <_pspsdk_alloc_unlock>
    2c04:	27bd0010 	addiu	sp,sp,16
    2c08:	00002021 	move	a0,zero
    2c0c:	3c020000 	lui	v0,0x0
    2c10:	0c000b1f 	jal	2c7c <_sbrk>
    2c14:	ac435bbc 	sw	v1,23484(v0)
    2c18:	8e030008 	lw	v1,8(s0)
    2c1c:	8c640000 	lw	a0,0(v1)
    2c20:	8c630004 	lw	v1,4(v1)
    2c24:	00832021 	addu	a0,a0,v1
    2c28:	0c000b1f 	jal	2c7c <_sbrk>
    2c2c:	00822023 	subu	a0,a0,v0
    2c30:	8e02000c 	lw	v0,12(s0)
    2c34:	8e030008 	lw	v1,8(s0)
    2c38:	08000af2 	j	2bc8 <free+0x64>
    2c3c:	ac62000c 	sw	v0,12(v1)
    2c40:	02031823 	subu	v1,s0,v1
    2c44:	00642023 	subu	a0,v1,a0
    2c48:	3c020000 	lui	v0,0x0
    2c4c:	0c000b1f 	jal	2c7c <_sbrk>
    2c50:	ac405bbc 	sw	zero,23484(v0)
    2c54:	08000af3 	j	2bcc <free+0x68>
    2c58:	8fbf000c 	lw	ra,12(sp)

00002c5c <_pspsdk_alloc_init>:
    2c5c:	03e00008 	jr	ra
    2c60:	00000000 	nop

00002c64 <_pspsdk_alloc_deinit>:
    2c64:	03e00008 	jr	ra
    2c68:	00000000 	nop

00002c6c <_pspsdk_alloc_lock>:
    2c6c:	03e00008 	jr	ra
    2c70:	00000000 	nop

00002c74 <_pspsdk_alloc_unlock>:
    2c74:	03e00008 	jr	ra
    2c78:	00000000 	nop

00002c7c <_sbrk>:
    2c7c:	27bdfff0 	addiu	sp,sp,-16
    2c80:	afb00000 	sw	s0,0(sp)
    2c84:	3c100000 	lui	s0,0x0
    2c88:	8e035bac 	lw	v1,23468(s0)
    2c8c:	afb10004 	sw	s1,4(sp)
    2c90:	afbf000c 	sw	ra,12(sp)
    2c94:	afb20008 	sw	s2,8(sp)
    2c98:	1060002c 	beqz	v1,2d4c <_sbrk+0xd0>
    2c9c:	00808821 	move	s1,a0
    2ca0:	3c040000 	lui	a0,0x0
    2ca4:	8c825bb4 	lw	v0,23476(a0)
    2ca8:	00518821 	addu	s1,v0,s1
    2cac:	0223182b 	sltu	v1,s1,v1
    2cb0:	14600020 	bnez	v1,2d34 <_sbrk+0xb8>
    2cb4:	8fbf000c 	lw	ra,12(sp)
    2cb8:	3c030000 	lui	v1,0x0
    2cbc:	8c635bb8 	lw	v1,23480(v1)
    2cc0:	0223182b 	sltu	v1,s1,v1
    2cc4:	5060001c 	beqzl	v1,2d38 <_sbrk+0xbc>
    2cc8:	2402ffff 	li	v0,-1
    2ccc:	ac915bb4 	sw	s1,23476(a0)
    2cd0:	8fb20008 	lw	s2,8(sp)
    2cd4:	8fb10004 	lw	s1,4(sp)
    2cd8:	8fb00000 	lw	s0,0(sp)
    2cdc:	03e00008 	jr	ra
    2ce0:	27bd0010 	addiu	sp,sp,16
    2ce4:	24040002 	li	a0,2
    2ce8:	24a55668 	addiu	a1,a1,22120
    2cec:	00003021 	move	a2,zero
    2cf0:	02403821 	move	a3,s2
    2cf4:	0c0012d2 	jal	4b48 <sceKernelAllocPartitionMemory>
    2cf8:	00004021 	move	t0,zero
    2cfc:	3c030000 	lui	v1,0x0
    2d00:	1840001d 	blez	v0,2d78 <_sbrk+0xfc>
    2d04:	ac625bb0 	sw	v0,23472(v1)
    2d08:	0c0012d6 	jal	4b58 <sceKernelGetBlockHeadAddr>
    2d0c:	00402021 	move	a0,v0
    2d10:	00529021 	addu	s2,v0,s2
    2d14:	3c030000 	lui	v1,0x0
    2d18:	3c040000 	lui	a0,0x0
    2d1c:	ac725bb8 	sw	s2,23480(v1)
    2d20:	00401821 	move	v1,v0
    2d24:	ae025bac 	sw	v0,23468(s0)
    2d28:	14600017 	bnez	v1,2d88 <_sbrk+0x10c>
    2d2c:	ac825bb4 	sw	v0,23476(a0)
    2d30:	8fbf000c 	lw	ra,12(sp)
    2d34:	2402ffff 	li	v0,-1
    2d38:	8fb20008 	lw	s2,8(sp)
    2d3c:	8fb10004 	lw	s1,4(sp)
    2d40:	8fb00000 	lw	s0,0(sp)
    2d44:	03e00008 	jr	ra
    2d48:	27bd0010 	addiu	sp,sp,16
    2d4c:	3c020000 	lui	v0,0x0
    2d50:	24430000 	addiu	v1,v0,0
    2d54:	5060000e 	beqzl	v1,2d90 <_sbrk+0x114>
    2d58:	3c020000 	lui	v0,0x0
    2d5c:	8c520000 	lw	s2,0(v0)
    2d60:	2402ffff 	li	v0,-1
    2d64:	1242000d 	beq	s2,v0,2d9c <_sbrk+0x120>
    2d68:	00000000 	nop
    2d6c:	00129280 	sll	s2,s2,0xa
    2d70:	1640ffdc 	bnez	s2,2ce4 <_sbrk+0x68>
    2d74:	3c050000 	lui	a1,0x0
    2d78:	8e035bac 	lw	v1,23468(s0)
    2d7c:	3c040000 	lui	a0,0x0
    2d80:	1060ffeb 	beqz	v1,2d30 <_sbrk+0xb4>
    2d84:	8c825bb4 	lw	v0,23476(a0)
    2d88:	08000b2b 	j	2cac <_sbrk+0x30>
    2d8c:	00518821 	addu	s1,v0,s1
    2d90:	24420000 	addiu	v0,v0,0
    2d94:	1440fff5 	bnez	v0,2d6c <_sbrk+0xf0>
    2d98:	24120040 	li	s2,64
    2d9c:	0c0012d0 	jal	4b40 <sceKernelMaxFreeMemSize>
    2da0:	00000000 	nop
    2da4:	08000b5c 	j	2d70 <_sbrk+0xf4>
    2da8:	00409021 	move	s2,v0

00002dac <__psp_free_heap>:
    2dac:	3c020000 	lui	v0,0x0
    2db0:	8c425bb0 	lw	v0,23472(v0)
    2db4:	1c400003 	bgtz	v0,2dc4 <__psp_free_heap+0x18>
    2db8:	00000000 	nop
    2dbc:	03e00008 	jr	ra
    2dc0:	00000000 	nop
    2dc4:	080012d4 	j	4b50 <sceKernelFreePartitionMemory>
    2dc8:	00402021 	move	a0,v0

00002dcc <_heap_mem_fit>:
    2dcc:	1480000a 	bnez	a0,2df8 <_heap_mem_fit+0x2c>
    2dd0:	00001021 	move	v0,zero
    2dd4:	08000b81 	j	2e04 <_heap_mem_fit+0x38>
    2dd8:	00000000 	nop
    2ddc:	8c860000 	lw	a2,0(a0)
    2de0:	00431823 	subu	v1,v0,v1
    2de4:	00661823 	subu	v1,v1,a2
    2de8:	0065182b 	sltu	v1,v1,a1
    2dec:	10600007 	beqz	v1,2e0c <_heap_mem_fit+0x40>
    2df0:	00000000 	nop
    2df4:	00402021 	move	a0,v0
    2df8:	8c82000c 	lw	v0,12(a0)
    2dfc:	5440fff7 	bnezl	v0,2ddc <_heap_mem_fit+0x10>
    2e00:	8c830004 	lw	v1,4(a0)
    2e04:	03e00008 	jr	ra
    2e08:	00000000 	nop
    2e0c:	03e00008 	jr	ra
    2e10:	00801021 	move	v0,a0

00002e14 <malloc>:
    2e14:	27bdffe8 	addiu	sp,sp,-24
    2e18:	afb00008 	sw	s0,8(sp)
    2e1c:	24900010 	addiu	s0,a0,16
    2e20:	3202000f 	andi	v0,s0,0xf
    2e24:	afbf0014 	sw	ra,20(sp)
    2e28:	afb20010 	sw	s2,16(sp)
    2e2c:	10400004 	beqz	v0,2e40 <malloc+0x2c>
    2e30:	afb1000c 	sw	s1,12(sp)
    2e34:	2490001f 	addiu	s0,a0,31
    2e38:	2402fff0 	li	v0,-16
    2e3c:	02028024 	and	s0,s0,v0
    2e40:	0c000b1b 	jal	2c6c <_pspsdk_alloc_lock>
    2e44:	3c110000 	lui	s1,0x0
    2e48:	8e235bc0 	lw	v1,23488(s1)
    2e4c:	1060004b 	beqz	v1,2f7c <malloc+0x168>
    2e50:	3c020000 	lui	v0,0x0
    2e54:	8c445bc4 	lw	a0,23492(v0)
    2e58:	00901021 	addu	v0,a0,s0
    2e5c:	0043102b 	sltu	v0,v0,v1
    2e60:	5040000b 	beqzl	v0,2e90 <malloc+0x7c>
    2e64:	8c64000c 	lw	a0,12(v1)
    2e68:	08000bcf 	j	2f3c <malloc+0x128>
    2e6c:	24820010 	addiu	v0,a0,16
    2e70:	8c650000 	lw	a1,0(v1)
    2e74:	00823023 	subu	a2,a0,v0
    2e78:	00c53023 	subu	a2,a2,a1
    2e7c:	00d0302b 	sltu	a2,a2,s0
    2e80:	10c0001d 	beqz	a2,2ef8 <malloc+0xe4>
    2e84:	00a22821 	addu	a1,a1,v0
    2e88:	00801821 	move	v1,a0
    2e8c:	8c64000c 	lw	a0,12(v1)
    2e90:	5480fff7 	bnezl	a0,2e70 <malloc+0x5c>
    2e94:	8c620004 	lw	v0,4(v1)
    2e98:	0c000b1f 	jal	2c7c <_sbrk>
    2e9c:	02002021 	move	a0,s0
    2ea0:	00401821 	move	v1,v0
    2ea4:	2402ffff 	li	v0,-1
    2ea8:	10620058 	beq	v1,v0,300c <malloc+0x1f8>
    2eac:	3c040000 	lui	a0,0x0
    2eb0:	8c855bbc 	lw	a1,23484(a0)
    2eb4:	24620010 	addiu	v0,v1,16
    2eb8:	2610fff0 	addiu	s0,s0,-16
    2ebc:	ac620000 	sw	v0,0(v1)
    2ec0:	ac60000c 	sw	zero,12(v1)
    2ec4:	ac700004 	sw	s0,4(v1)
    2ec8:	ac650008 	sw	a1,8(v1)
    2ecc:	aca3000c 	sw	v1,12(a1)
    2ed0:	ac835bbc 	sw	v1,23484(a0)
    2ed4:	0c000b1d 	jal	2c74 <_pspsdk_alloc_unlock>
    2ed8:	afa20000 	sw	v0,0(sp)
    2edc:	8fbf0014 	lw	ra,20(sp)
    2ee0:	8fa20000 	lw	v0,0(sp)
    2ee4:	8fb20010 	lw	s2,16(sp)
    2ee8:	8fb1000c 	lw	s1,12(sp)
    2eec:	8fb00008 	lw	s0,8(sp)
    2ef0:	03e00008 	jr	ra
    2ef4:	27bd0018 	addiu	sp,sp,24
    2ef8:	24a20010 	addiu	v0,a1,16
    2efc:	2610fff0 	addiu	s0,s0,-16
    2f00:	aca30008 	sw	v1,8(a1)
    2f04:	aca4000c 	sw	a0,12(a1)
    2f08:	aca20000 	sw	v0,0(a1)
    2f0c:	acb00004 	sw	s0,4(a1)
    2f10:	ac850008 	sw	a1,8(a0)
    2f14:	ac65000c 	sw	a1,12(v1)
    2f18:	0c000b1d 	jal	2c74 <_pspsdk_alloc_unlock>
    2f1c:	afa20000 	sw	v0,0(sp)
    2f20:	8fa20000 	lw	v0,0(sp)
    2f24:	8fbf0014 	lw	ra,20(sp)
    2f28:	8fb20010 	lw	s2,16(sp)
    2f2c:	8fb1000c 	lw	s1,12(sp)
    2f30:	8fb00008 	lw	s0,8(sp)
    2f34:	03e00008 	jr	ra
    2f38:	27bd0018 	addiu	sp,sp,24
    2f3c:	2610fff0 	addiu	s0,s0,-16
    2f40:	ac820000 	sw	v0,0(a0)
    2f44:	ac800008 	sw	zero,8(a0)
    2f48:	ac900004 	sw	s0,4(a0)
    2f4c:	ac83000c 	sw	v1,12(a0)
    2f50:	ac640008 	sw	a0,8(v1)
    2f54:	ae245bc0 	sw	a0,23488(s1)
    2f58:	0c000b1d 	jal	2c74 <_pspsdk_alloc_unlock>
    2f5c:	afa20000 	sw	v0,0(sp)
    2f60:	8fbf0014 	lw	ra,20(sp)
    2f64:	8fa20000 	lw	v0,0(sp)
    2f68:	8fb20010 	lw	s2,16(sp)
    2f6c:	8fb1000c 	lw	s1,12(sp)
    2f70:	8fb00008 	lw	s0,8(sp)
    2f74:	03e00008 	jr	ra
    2f78:	27bd0018 	addiu	sp,sp,24
    2f7c:	3c120000 	lui	s2,0x0
    2f80:	8e425bc4 	lw	v0,23492(s2)
    2f84:	10400019 	beqz	v0,2fec <malloc+0x1d8>
    2f88:	00000000 	nop
    2f8c:	0c000b1f 	jal	2c7c <_sbrk>
    2f90:	02002021 	move	a0,s0
    2f94:	00401821 	move	v1,v0
    2f98:	2404ffff 	li	a0,-1
    2f9c:	1064ffe1 	beq	v1,a0,2f24 <malloc+0x110>
    2fa0:	00001021 	move	v0,zero
    2fa4:	24620010 	addiu	v0,v1,16
    2fa8:	2610fff0 	addiu	s0,s0,-16
    2fac:	ae235bc0 	sw	v1,23488(s1)
    2fb0:	ac700004 	sw	s0,4(v1)
    2fb4:	ac620000 	sw	v0,0(v1)
    2fb8:	ac600008 	sw	zero,8(v1)
    2fbc:	ac60000c 	sw	zero,12(v1)
    2fc0:	3c040000 	lui	a0,0x0
    2fc4:	afa20000 	sw	v0,0(sp)
    2fc8:	0c000b1d 	jal	2c74 <_pspsdk_alloc_unlock>
    2fcc:	ac835bbc 	sw	v1,23484(a0)
    2fd0:	8fbf0014 	lw	ra,20(sp)
    2fd4:	8fa20000 	lw	v0,0(sp)
    2fd8:	8fb20010 	lw	s2,16(sp)
    2fdc:	8fb1000c 	lw	s1,12(sp)
    2fe0:	8fb00008 	lw	s0,8(sp)
    2fe4:	03e00008 	jr	ra
    2fe8:	27bd0018 	addiu	sp,sp,24
    2fec:	0c000b1f 	jal	2c7c <_sbrk>
    2ff0:	00002021 	move	a0,zero
    2ff4:	0c000b1f 	jal	2c7c <_sbrk>
    2ff8:	3044000f 	andi	a0,v0,0xf
    2ffc:	0c000b1f 	jal	2c7c <_sbrk>
    3000:	00002021 	move	a0,zero
    3004:	08000be3 	j	2f8c <malloc+0x178>
    3008:	ae425bc4 	sw	v0,23492(s2)
    300c:	0c000b1d 	jal	2c74 <_pspsdk_alloc_unlock>
    3010:	00000000 	nop
    3014:	08000bc9 	j	2f24 <malloc+0x110>
    3018:	00001021 	move	v0,zero

0000301c <__udivdi3>:
    301c:	00c01021 	move	v0,a2
    3020:	00804021 	move	t0,a0
    3024:	14e00055 	bnez	a3,317c <__udivdi3+0x160>
    3028:	00a04821 	move	t1,a1
    302c:	00a6182b 	sltu	v1,a1,a2
    3030:	1060006f 	beqz	v1,31f0 <__udivdi3+0x1d4>
    3034:	3c030001 	lui	v1,0x1
    3038:	00c3182b 	sltu	v1,a2,v1
    303c:	14600120 	bnez	v1,34c0 <__udivdi3+0x4a4>
    3040:	2cc70100 	sltiu	a3,a2,256
    3044:	3c0a0100 	lui	t2,0x100
    3048:	24070018 	li	a3,24
    304c:	00ca502b 	sltu	t2,a2,t2
    3050:	24030010 	li	v1,16
    3054:	00ea180a 	movz	v1,a3,t2
    3058:	00603821 	move	a3,v1
    305c:	3c0a0000 	lui	t2,0x0
    3060:	00661806 	srlv	v1,a2,v1
    3064:	254a5690 	addiu	t2,t2,22160
    3068:	006a1821 	addu	v1,v1,t2
    306c:	90630000 	lbu	v1,0(v1)
    3070:	00673821 	addu	a3,v1,a3
    3074:	24030020 	li	v1,32
    3078:	00671823 	subu	v1,v1,a3
    307c:	50600007 	beqzl	v1,309c <__udivdi3+0x80>
    3080:	00021c02 	srl	v1,v0,0x10
    3084:	00652804 	sllv	a1,a1,v1
    3088:	00e43806 	srlv	a3,a0,a3
    308c:	00661004 	sllv	v0,a2,v1
    3090:	00a74825 	or	t1,a1,a3
    3094:	00644004 	sllv	t0,a0,v1
    3098:	00021c02 	srl	v1,v0,0x10
    309c:	14600002 	bnez	v1,30a8 <__udivdi3+0x8c>
    30a0:	0123001b 	divu	zero,t1,v1
    30a4:	000001cd 	break	0x7
    30a8:	304affff 	andi	t2,v0,0xffff
    30ac:	00085c02 	srl	t3,t0,0x10
    30b0:	00003812 	mflo	a3
    30b4:	00002810 	mfhi	a1
    30b8:	00052c00 	sll	a1,a1,0x10
    30bc:	00ab2825 	or	a1,a1,t3
    30c0:	00002012 	mflo	a0
    30c4:	00ea0018 	mult	a3,t2
    30c8:	00003012 	mflo	a2
    30cc:	00a6582b 	sltu	t3,a1,a2
    30d0:	14600002 	bnez	v1,30dc <__udivdi3+0xc0>
    30d4:	0123001b 	divu	zero,t1,v1
    30d8:	000001cd 	break	0x7
    30dc:	51600009 	beqzl	t3,3104 <__udivdi3+0xe8>
    30e0:	00a62823 	subu	a1,a1,a2
    30e4:	00a22821 	addu	a1,a1,v0
    30e8:	00a2482b 	sltu	t1,a1,v0
    30ec:	15200004 	bnez	t1,3100 <__udivdi3+0xe4>
    30f0:	24e4ffff 	addiu	a0,a3,-1
    30f4:	00a6482b 	sltu	t1,a1,a2
    30f8:	5520014d 	bnezl	t1,3630 <__udivdi3+0x614>
    30fc:	24e4fffe 	addiu	a0,a3,-2
    3100:	00a62823 	subu	a1,a1,a2
    3104:	14600002 	bnez	v1,3110 <__udivdi3+0xf4>
    3108:	00a3001b 	divu	zero,a1,v1
    310c:	000001cd 	break	0x7
    3110:	3108ffff 	andi	t0,t0,0xffff
    3114:	00003012 	mflo	a2
    3118:	00004810 	mfhi	t1
    311c:	00094c00 	sll	t1,t1,0x10
    3120:	01284025 	or	t0,t1,t0
    3124:	00003812 	mflo	a3
    3128:	00ca0018 	mult	a2,t2
    312c:	00005012 	mflo	t2
    3130:	010a482b 	sltu	t1,t0,t2
    3134:	14600002 	bnez	v1,3140 <__udivdi3+0x124>
    3138:	00a3001b 	divu	zero,a1,v1
    313c:	000001cd 	break	0x7
    3140:	11200007 	beqz	t1,3160 <__udivdi3+0x144>
    3144:	01024021 	addu	t0,t0,v0
    3148:	0102102b 	sltu	v0,t0,v0
    314c:	14400004 	bnez	v0,3160 <__udivdi3+0x144>
    3150:	24c7ffff 	addiu	a3,a2,-1
    3154:	010a502b 	sltu	t2,t0,t2
    3158:	24c6fffe 	addiu	a2,a2,-2
    315c:	00ca380b 	movn	a3,a2,t2
    3160:	00046400 	sll	t4,a0,0x10
    3164:	00ec6025 	or	t4,a3,t4
    3168:	01801021 	move	v0,t4
    316c:	00003821 	move	a3,zero
    3170:	00e01821 	move	v1,a3
    3174:	03e00008 	jr	ra
    3178:	00000000 	nop
    317c:	00a7102b 	sltu	v0,a1,a3
    3180:	54400070 	bnezl	v0,3344 <__udivdi3+0x328>
    3184:	00003821 	move	a3,zero
    3188:	3c020001 	lui	v0,0x1
    318c:	00e2102b 	sltu	v0,a3,v0
    3190:	14400071 	bnez	v0,3358 <__udivdi3+0x33c>
    3194:	2ce30100 	sltiu	v1,a3,256
    3198:	3c080100 	lui	t0,0x100
    319c:	00e8402b 	sltu	t0,a3,t0
    31a0:	24030018 	li	v1,24
    31a4:	24020010 	li	v0,16
    31a8:	0068100a 	movz	v0,v1,t0
    31ac:	3c030000 	lui	v1,0x0
    31b0:	00404021 	move	t0,v0
    31b4:	24635690 	addiu	v1,v1,22160
    31b8:	00471006 	srlv	v0,a3,v0
    31bc:	00431021 	addu	v0,v0,v1
    31c0:	90420000 	lbu	v0,0(v0)
    31c4:	24030020 	li	v1,32
    31c8:	00484021 	addu	t0,v0,t0
    31cc:	00681823 	subu	v1,v1,t0
    31d0:	1460006f 	bnez	v1,3390 <__udivdi3+0x374>
    31d4:	01061006 	srlv	v0,a2,t0
    31d8:	00e5282b 	sltu	a1,a3,a1
    31dc:	14a00110 	bnez	a1,3620 <__udivdi3+0x604>
    31e0:	00003821 	move	a3,zero
    31e4:	0086602b 	sltu	t4,a0,a2
    31e8:	08000cd2 	j	3348 <__udivdi3+0x32c>
    31ec:	2d8c0001 	sltiu	t4,t4,1
    31f0:	14c00008 	bnez	a2,3214 <__udivdi3+0x1f8>
    31f4:	0043182b 	sltu	v1,v0,v1
    31f8:	24030001 	li	v1,1
    31fc:	14c00002 	bnez	a2,3208 <__udivdi3+0x1ec>
    3200:	0066001b 	divu	zero,v1,a2
    3204:	000001cd 	break	0x7
    3208:	00001012 	mflo	v0
    320c:	3c030001 	lui	v1,0x1
    3210:	0043182b 	sltu	v1,v0,v1
    3214:	146000ae 	bnez	v1,34d0 <__udivdi3+0x4b4>
    3218:	2c460100 	sltiu	a2,v0,256
    321c:	3c070100 	lui	a3,0x100
    3220:	0047382b 	sltu	a3,v0,a3
    3224:	24060018 	li	a2,24
    3228:	24030010 	li	v1,16
    322c:	00c7180a 	movz	v1,a2,a3
    3230:	3c070000 	lui	a3,0x0
    3234:	00603021 	move	a2,v1
    3238:	24e75690 	addiu	a3,a3,22160
    323c:	00621806 	srlv	v1,v0,v1
    3240:	00671821 	addu	v1,v1,a3
    3244:	906a0000 	lbu	t2,0(v1)
    3248:	24070020 	li	a3,32
    324c:	01465021 	addu	t2,t2,a2
    3250:	00ea3823 	subu	a3,a3,t2
    3254:	54e000ac 	bnezl	a3,3508 <__udivdi3+0x4ec>
    3258:	00e21004 	sllv	v0,v0,a3
    325c:	00a24823 	subu	t1,a1,v0
    3260:	00021c02 	srl	v1,v0,0x10
    3264:	3046ffff 	andi	a2,v0,0xffff
    3268:	24070001 	li	a3,1
    326c:	14600002 	bnez	v1,3278 <__udivdi3+0x25c>
    3270:	0123001b 	divu	zero,t1,v1
    3274:	000001cd 	break	0x7
    3278:	00086c02 	srl	t5,t0,0x10
    327c:	00006012 	mflo	t4
    3280:	00005010 	mfhi	t2
    3284:	000a5400 	sll	t2,t2,0x10
    3288:	014d5025 	or	t2,t2,t5
    328c:	00002012 	mflo	a0
    3290:	01860018 	mult	t4,a2
    3294:	00005812 	mflo	t3
    3298:	014b682b 	sltu	t5,t2,t3
    329c:	14600002 	bnez	v1,32a8 <__udivdi3+0x28c>
    32a0:	0123001b 	divu	zero,t1,v1
    32a4:	000001cd 	break	0x7
    32a8:	11a00009 	beqz	t5,32d0 <__udivdi3+0x2b4>
    32ac:	014b2823 	subu	a1,t2,t3
    32b0:	01425021 	addu	t2,t2,v0
    32b4:	0142282b 	sltu	a1,t2,v0
    32b8:	14a00004 	bnez	a1,32cc <__udivdi3+0x2b0>
    32bc:	2584ffff 	addiu	a0,t4,-1
    32c0:	014b282b 	sltu	a1,t2,t3
    32c4:	54a000d8 	bnezl	a1,3628 <__udivdi3+0x60c>
    32c8:	2584fffe 	addiu	a0,t4,-2
    32cc:	014b2823 	subu	a1,t2,t3
    32d0:	14600002 	bnez	v1,32dc <__udivdi3+0x2c0>
    32d4:	00a3001b 	divu	zero,a1,v1
    32d8:	000001cd 	break	0x7
    32dc:	3108ffff 	andi	t0,t0,0xffff
    32e0:	00005012 	mflo	t2
    32e4:	00005810 	mfhi	t3
    32e8:	000b5c00 	sll	t3,t3,0x10
    32ec:	01684025 	or	t0,t3,t0
    32f0:	00004812 	mflo	t1
    32f4:	01460018 	mult	t2,a2
    32f8:	00003012 	mflo	a2
    32fc:	0106582b 	sltu	t3,t0,a2
    3300:	14600002 	bnez	v1,330c <__udivdi3+0x2f0>
    3304:	00a3001b 	divu	zero,a1,v1
    3308:	000001cd 	break	0x7
    330c:	11600007 	beqz	t3,332c <__udivdi3+0x310>
    3310:	01024021 	addu	t0,t0,v0
    3314:	0102102b 	sltu	v0,t0,v0
    3318:	14400004 	bnez	v0,332c <__udivdi3+0x310>
    331c:	2549ffff 	addiu	t1,t2,-1
    3320:	0106302b 	sltu	a2,t0,a2
    3324:	254afffe 	addiu	t2,t2,-2
    3328:	0146480b 	movn	t1,t2,a2
    332c:	00046400 	sll	t4,a0,0x10
    3330:	012c6025 	or	t4,t1,t4
    3334:	01801021 	move	v0,t4
    3338:	00e01821 	move	v1,a3
    333c:	03e00008 	jr	ra
    3340:	00000000 	nop
    3344:	00006021 	move	t4,zero
    3348:	01801021 	move	v0,t4
    334c:	00e01821 	move	v1,a3
    3350:	03e00008 	jr	ra
    3354:	00000000 	nop
    3358:	24020008 	li	v0,8
    335c:	0003100b 	movn	v0,zero,v1
    3360:	3c030000 	lui	v1,0x0
    3364:	00404021 	move	t0,v0
    3368:	24635690 	addiu	v1,v1,22160
    336c:	00471006 	srlv	v0,a3,v0
    3370:	00431021 	addu	v0,v0,v1
    3374:	90420000 	lbu	v0,0(v0)
    3378:	24030020 	li	v1,32
    337c:	00484021 	addu	t0,v0,t0
    3380:	00681823 	subu	v1,v1,t0
    3384:	5060ff95 	beqzl	v1,31dc <__udivdi3+0x1c0>
    3388:	00e5282b 	sltu	a1,a3,a1
    338c:	01061006 	srlv	v0,a2,t0
    3390:	00675004 	sllv	t2,a3,v1
    3394:	01425025 	or	t2,t2,v0
    3398:	01056006 	srlv	t4,a1,t0
    339c:	000a1402 	srl	v0,t2,0x10
    33a0:	14400002 	bnez	v0,33ac <__udivdi3+0x390>
    33a4:	0182001b 	divu	zero,t4,v0
    33a8:	000001cd 	break	0x7
    33ac:	314dffff 	andi	t5,t2,0xffff
    33b0:	01044006 	srlv	t0,a0,t0
    33b4:	00652804 	sllv	a1,a1,v1
    33b8:	00a82825 	or	a1,a1,t0
    33bc:	00054402 	srl	t0,a1,0x10
    33c0:	00007012 	mflo	t6
    33c4:	00005810 	mfhi	t3
    33c8:	000b5c00 	sll	t3,t3,0x10
    33cc:	01685825 	or	t3,t3,t0
    33d0:	00003812 	mflo	a3
    33d4:	01cd0018 	mult	t6,t5
    33d8:	00004812 	mflo	t1
    33dc:	0169402b 	sltu	t0,t3,t1
    33e0:	14400002 	bnez	v0,33ec <__udivdi3+0x3d0>
    33e4:	0182001b 	divu	zero,t4,v0
    33e8:	000001cd 	break	0x7
    33ec:	1100000a 	beqz	t0,3418 <__udivdi3+0x3fc>
    33f0:	00663004 	sllv	a2,a2,v1
    33f4:	016a5821 	addu	t3,t3,t2
    33f8:	016a402b 	sltu	t0,t3,t2
    33fc:	15000006 	bnez	t0,3418 <__udivdi3+0x3fc>
    3400:	25c7ffff 	addiu	a3,t6,-1
    3404:	0169402b 	sltu	t0,t3,t1
    3408:	51000004 	beqzl	t0,341c <__udivdi3+0x400>
    340c:	01695823 	subu	t3,t3,t1
    3410:	25c7fffe 	addiu	a3,t6,-2
    3414:	016a5821 	addu	t3,t3,t2
    3418:	01695823 	subu	t3,t3,t1
    341c:	14400002 	bnez	v0,3428 <__udivdi3+0x40c>
    3420:	0162001b 	divu	zero,t3,v0
    3424:	000001cd 	break	0x7
    3428:	30a5ffff 	andi	a1,a1,0xffff
    342c:	00004812 	mflo	t1
    3430:	00004010 	mfhi	t0
    3434:	00084400 	sll	t0,t0,0x10
    3438:	01052825 	or	a1,t0,a1
    343c:	00006012 	mflo	t4
    3440:	012d0018 	mult	t1,t5
    3444:	00006812 	mflo	t5
    3448:	00ad402b 	sltu	t0,a1,t5
    344c:	14400002 	bnez	v0,3458 <__udivdi3+0x43c>
    3450:	0162001b 	divu	zero,t3,v0
    3454:	000001cd 	break	0x7
    3458:	5100000b 	beqzl	t0,3488 <__udivdi3+0x46c>
    345c:	00073c00 	sll	a3,a3,0x10
    3460:	00aa2821 	addu	a1,a1,t2
    3464:	00aa102b 	sltu	v0,a1,t2
    3468:	14400006 	bnez	v0,3484 <__udivdi3+0x468>
    346c:	252cffff 	addiu	t4,t1,-1
    3470:	00ad102b 	sltu	v0,a1,t5
    3474:	50400004 	beqzl	v0,3488 <__udivdi3+0x46c>
    3478:	00073c00 	sll	a3,a3,0x10
    347c:	252cfffe 	addiu	t4,t1,-2
    3480:	00aa2821 	addu	a1,a1,t2
    3484:	00073c00 	sll	a3,a3,0x10
    3488:	01876025 	or	t4,t4,a3
    348c:	01860019 	multu	t4,a2
    3490:	00ad2823 	subu	a1,a1,t5
    3494:	00003810 	mfhi	a3
    3498:	00a7402b 	sltu	t0,a1,a3
    349c:	1500005d 	bnez	t0,3614 <__udivdi3+0x5f8>
    34a0:	00003012 	mflo	a2
    34a4:	50a70058 	beql	a1,a3,3608 <__udivdi3+0x5ec>
    34a8:	00642004 	sllv	a0,a0,v1
    34ac:	00003821 	move	a3,zero
    34b0:	01801021 	move	v0,t4
    34b4:	00e01821 	move	v1,a3
    34b8:	03e00008 	jr	ra
    34bc:	00000000 	nop
    34c0:	24030008 	li	v1,8
    34c4:	0007180b 	movn	v1,zero,a3
    34c8:	08000c17 	j	305c <__udivdi3+0x40>
    34cc:	00603821 	move	a3,v1
    34d0:	24030008 	li	v1,8
    34d4:	0006180b 	movn	v1,zero,a2
    34d8:	3c070000 	lui	a3,0x0
    34dc:	00603021 	move	a2,v1
    34e0:	24e75690 	addiu	a3,a3,22160
    34e4:	00621806 	srlv	v1,v0,v1
    34e8:	00671821 	addu	v1,v1,a3
    34ec:	906a0000 	lbu	t2,0(v1)
    34f0:	24070020 	li	a3,32
    34f4:	01465021 	addu	t2,t2,a2
    34f8:	00ea3823 	subu	a3,a3,t2
    34fc:	10e0ff58 	beqz	a3,3260 <__udivdi3+0x244>
    3500:	00a24823 	subu	t1,a1,v0
    3504:	00e21004 	sllv	v0,v0,a3
    3508:	01455806 	srlv	t3,a1,t2
    350c:	00021c02 	srl	v1,v0,0x10
    3510:	14600002 	bnez	v1,351c <__udivdi3+0x500>
    3514:	0163001b 	divu	zero,t3,v1
    3518:	000001cd 	break	0x7
    351c:	3046ffff 	andi	a2,v0,0xffff
    3520:	00e52804 	sllv	a1,a1,a3
    3524:	00e44004 	sllv	t0,a0,a3
    3528:	01445006 	srlv	t2,a0,t2
    352c:	00aa5025 	or	t2,a1,t2
    3530:	000a2c02 	srl	a1,t2,0x10
    3534:	00006812 	mflo	t5
    3538:	00007010 	mfhi	t6
    353c:	000e2400 	sll	a0,t6,0x10
    3540:	00852025 	or	a0,a0,a1
    3544:	00003812 	mflo	a3
    3548:	01a60018 	mult	t5,a2
    354c:	00006012 	mflo	t4
    3550:	008c282b 	sltu	a1,a0,t4
    3554:	14600002 	bnez	v1,3560 <__udivdi3+0x544>
    3558:	0163001b 	divu	zero,t3,v1
    355c:	000001cd 	break	0x7
    3560:	50a0000b 	beqzl	a1,3590 <__udivdi3+0x574>
    3564:	008c2023 	subu	a0,a0,t4
    3568:	00822021 	addu	a0,a0,v0
    356c:	0082282b 	sltu	a1,a0,v0
    3570:	14a00006 	bnez	a1,358c <__udivdi3+0x570>
    3574:	25a7ffff 	addiu	a3,t5,-1
    3578:	008c282b 	sltu	a1,a0,t4
    357c:	50a00004 	beqzl	a1,3590 <__udivdi3+0x574>
    3580:	008c2023 	subu	a0,a0,t4
    3584:	25a7fffe 	addiu	a3,t5,-2
    3588:	00822021 	addu	a0,a0,v0
    358c:	008c2023 	subu	a0,a0,t4
    3590:	14600002 	bnez	v1,359c <__udivdi3+0x580>
    3594:	0083001b 	divu	zero,a0,v1
    3598:	000001cd 	break	0x7
    359c:	314affff 	andi	t2,t2,0xffff
    35a0:	00006012 	mflo	t4
    35a4:	00004810 	mfhi	t1
    35a8:	00094c00 	sll	t1,t1,0x10
    35ac:	012a4825 	or	t1,t1,t2
    35b0:	00005812 	mflo	t3
    35b4:	01860018 	mult	t4,a2
    35b8:	00002812 	mflo	a1
    35bc:	0125502b 	sltu	t2,t1,a1
    35c0:	14600002 	bnez	v1,35cc <__udivdi3+0x5b0>
    35c4:	0083001b 	divu	zero,a0,v1
    35c8:	000001cd 	break	0x7
    35cc:	5140000b 	beqzl	t2,35fc <__udivdi3+0x5e0>
    35d0:	00073c00 	sll	a3,a3,0x10
    35d4:	01224821 	addu	t1,t1,v0
    35d8:	0122202b 	sltu	a0,t1,v0
    35dc:	14800006 	bnez	a0,35f8 <__udivdi3+0x5dc>
    35e0:	258bffff 	addiu	t3,t4,-1
    35e4:	0125202b 	sltu	a0,t1,a1
    35e8:	50800004 	beqzl	a0,35fc <__udivdi3+0x5e0>
    35ec:	00073c00 	sll	a3,a3,0x10
    35f0:	258bfffe 	addiu	t3,t4,-2
    35f4:	01224821 	addu	t1,t1,v0
    35f8:	00073c00 	sll	a3,a3,0x10
    35fc:	01254823 	subu	t1,t1,a1
    3600:	08000c9b 	j	326c <__udivdi3+0x250>
    3604:	01673825 	or	a3,t3,a3
    3608:	0086302b 	sltu	a2,a0,a2
    360c:	50c0ffa8 	beqzl	a2,34b0 <__udivdi3+0x494>
    3610:	00003821 	move	a3,zero
    3614:	258cffff 	addiu	t4,t4,-1
    3618:	08000d2c 	j	34b0 <__udivdi3+0x494>
    361c:	00003821 	move	a3,zero
    3620:	08000cd2 	j	3348 <__udivdi3+0x32c>
    3624:	240c0001 	li	t4,1
    3628:	08000cb3 	j	32cc <__udivdi3+0x2b0>
    362c:	01425021 	addu	t2,t2,v0
    3630:	08000c40 	j	3100 <__udivdi3+0xe4>
    3634:	00a22821 	addu	a1,a1,v0

00003638 <__umoddi3>:
    3638:	00c04821 	move	t1,a2
    363c:	00805021 	move	t2,a0
    3640:	14e00053 	bnez	a3,3790 <__umoddi3+0x158>
    3644:	00a01821 	move	v1,a1
    3648:	00a6102b 	sltu	v0,a1,a2
    364c:	10400073 	beqz	v0,381c <__umoddi3+0x1e4>
    3650:	3c020001 	lui	v0,0x1
    3654:	00c2102b 	sltu	v0,a2,v0
    3658:	14400128 	bnez	v0,3afc <__umoddi3+0x4c4>
    365c:	2cc70100 	sltiu	a3,a2,256
    3660:	3c080100 	lui	t0,0x100
    3664:	24070018 	li	a3,24
    3668:	00c8402b 	sltu	t0,a2,t0
    366c:	24020010 	li	v0,16
    3670:	00e8100a 	movz	v0,a3,t0
    3674:	00403821 	move	a3,v0
    3678:	3c080000 	lui	t0,0x0
    367c:	25085690 	addiu	t0,t0,22160
    3680:	00461006 	srlv	v0,a2,v0
    3684:	00481021 	addu	v0,v0,t0
    3688:	90480000 	lbu	t0,0(v0)
    368c:	01073821 	addu	a3,t0,a3
    3690:	24080020 	li	t0,32
    3694:	01074023 	subu	t0,t0,a3
    3698:	11000007 	beqz	t0,36b8 <__umoddi3+0x80>
    369c:	00001021 	move	v0,zero
    36a0:	01052804 	sllv	a1,a1,t0
    36a4:	00e43806 	srlv	a3,a0,a3
    36a8:	01001021 	move	v0,t0
    36ac:	01064804 	sllv	t1,a2,t0
    36b0:	00a71825 	or	v1,a1,a3
    36b4:	01045004 	sllv	t2,a0,t0
    36b8:	00093402 	srl	a2,t1,0x10
    36bc:	14c00002 	bnez	a2,36c8 <__umoddi3+0x90>
    36c0:	0066001b 	divu	zero,v1,a2
    36c4:	000001cd 	break	0x7
    36c8:	312bffff 	andi	t3,t1,0xffff
    36cc:	000a2402 	srl	a0,t2,0x10
    36d0:	00004012 	mflo	t0
    36d4:	00002810 	mfhi	a1
    36d8:	00053c00 	sll	a3,a1,0x10
    36dc:	00e43825 	or	a3,a3,a0
    36e0:	010b0018 	mult	t0,t3
    36e4:	00004012 	mflo	t0
    36e8:	00e8602b 	sltu	t4,a3,t0
    36ec:	14c00002 	bnez	a2,36f8 <__umoddi3+0xc0>
    36f0:	0066001b 	divu	zero,v1,a2
    36f4:	000001cd 	break	0x7
    36f8:	51800009 	beqzl	t4,3720 <__umoddi3+0xe8>
    36fc:	00e83823 	subu	a3,a3,t0
    3700:	00e93821 	addu	a3,a3,t1
    3704:	00e9182b 	sltu	v1,a3,t1
    3708:	54600005 	bnezl	v1,3720 <__umoddi3+0xe8>
    370c:	00e83823 	subu	a3,a3,t0
    3710:	00e8202b 	sltu	a0,a3,t0
    3714:	00e91821 	addu	v1,a3,t1
    3718:	0064380b 	movn	a3,v1,a0
    371c:	00e83823 	subu	a3,a3,t0
    3720:	14c00002 	bnez	a2,372c <__umoddi3+0xf4>
    3724:	00e6001b 	divu	zero,a3,a2
    3728:	000001cd 	break	0x7
    372c:	314affff 	andi	t2,t2,0xffff
    3730:	00002012 	mflo	a0
    3734:	00001810 	mfhi	v1
    3738:	00031c00 	sll	v1,v1,0x10
    373c:	006a5025 	or	t2,v1,t2
    3740:	008b0018 	mult	a0,t3
    3744:	00002012 	mflo	a0
    3748:	0144182b 	sltu	v1,t2,a0
    374c:	14c00002 	bnez	a2,3758 <__umoddi3+0x120>
    3750:	00e6001b 	divu	zero,a3,a2
    3754:	000001cd 	break	0x7
    3758:	50600009 	beqzl	v1,3780 <__umoddi3+0x148>
    375c:	01445023 	subu	t2,t2,a0
    3760:	01495021 	addu	t2,t2,t1
    3764:	0149182b 	sltu	v1,t2,t1
    3768:	54600005 	bnezl	v1,3780 <__umoddi3+0x148>
    376c:	01445023 	subu	t2,t2,a0
    3770:	0144182b 	sltu	v1,t2,a0
    3774:	01494821 	addu	t1,t2,t1
    3778:	0123500b 	movn	t2,t1,v1
    377c:	01445023 	subu	t2,t2,a0
    3780:	004a1006 	srlv	v0,t2,v0
    3784:	00001821 	move	v1,zero
    3788:	03e00008 	jr	ra
    378c:	00000000 	nop
    3790:	00a7102b 	sltu	v0,a1,a3
    3794:	14400072 	bnez	v0,3960 <__umoddi3+0x328>
    3798:	00801021 	move	v0,a0
    379c:	3c020001 	lui	v0,0x1
    37a0:	00e2102b 	sltu	v0,a3,v0
    37a4:	14400071 	bnez	v0,396c <__umoddi3+0x334>
    37a8:	2ce80100 	sltiu	t0,a3,256
    37ac:	3c090100 	lui	t1,0x100
    37b0:	00e9482b 	sltu	t1,a3,t1
    37b4:	24020018 	li	v0,24
    37b8:	24080010 	li	t0,16
    37bc:	0049400a 	movz	t0,v0,t1
    37c0:	3c090000 	lui	t1,0x0
    37c4:	01006021 	move	t4,t0
    37c8:	25295690 	addiu	t1,t1,22160
    37cc:	01074006 	srlv	t0,a3,t0
    37d0:	01094021 	addu	t0,t0,t1
    37d4:	91020000 	lbu	v0,0(t0)
    37d8:	240b0020 	li	t3,32
    37dc:	004c6021 	addu	t4,v0,t4
    37e0:	016c5823 	subu	t3,t3,t4
    37e4:	15600070 	bnez	t3,39a8 <__umoddi3+0x370>
    37e8:	01861006 	srlv	v0,a2,t4
    37ec:	00e5102b 	sltu	v0,a3,a1
    37f0:	14400005 	bnez	v0,3808 <__umoddi3+0x1d0>
    37f4:	00861023 	subu	v0,a0,a2
    37f8:	0086402b 	sltu	t0,a0,a2
    37fc:	1500ffe2 	bnez	t0,3788 <__umoddi3+0x150>
    3800:	00801021 	move	v0,a0
    3804:	00861023 	subu	v0,a0,a2
    3808:	00a72823 	subu	a1,a1,a3
    380c:	0082202b 	sltu	a0,a0,v0
    3810:	00a41823 	subu	v1,a1,a0
    3814:	03e00008 	jr	ra
    3818:	00000000 	nop
    381c:	14c00008 	bnez	a2,3840 <__umoddi3+0x208>
    3820:	0122102b 	sltu	v0,t1,v0
    3824:	24020001 	li	v0,1
    3828:	14c00002 	bnez	a2,3834 <__umoddi3+0x1fc>
    382c:	0046001b 	divu	zero,v0,a2
    3830:	000001cd 	break	0x7
    3834:	00004812 	mflo	t1
    3838:	3c020001 	lui	v0,0x1
    383c:	0122102b 	sltu	v0,t1,v0
    3840:	144000b2 	bnez	v0,3b0c <__umoddi3+0x4d4>
    3844:	2d230100 	sltiu	v1,t1,256
    3848:	3c060100 	lui	a2,0x100
    384c:	0126302b 	sltu	a2,t1,a2
    3850:	24030018 	li	v1,24
    3854:	24020010 	li	v0,16
    3858:	0066100a 	movz	v0,v1,a2
    385c:	3c060000 	lui	a2,0x0
    3860:	00401821 	move	v1,v0
    3864:	24c65690 	addiu	a2,a2,22160
    3868:	00491006 	srlv	v0,t1,v0
    386c:	00461021 	addu	v0,v0,a2
    3870:	90460000 	lbu	a2,0(v0)
    3874:	24020020 	li	v0,32
    3878:	00c33021 	addu	a2,a2,v1
    387c:	00461023 	subu	v0,v0,a2
    3880:	544000b0 	bnezl	v0,3b44 <__umoddi3+0x50c>
    3884:	00494804 	sllv	t1,t1,v0
    3888:	00a92823 	subu	a1,a1,t1
    388c:	00091c02 	srl	v1,t1,0x10
    3890:	3127ffff 	andi	a3,t1,0xffff
    3894:	14600002 	bnez	v1,38a0 <__umoddi3+0x268>
    3898:	00a3001b 	divu	zero,a1,v1
    389c:	000001cd 	break	0x7
    38a0:	000a4402 	srl	t0,t2,0x10
    38a4:	00002012 	mflo	a0
    38a8:	00005810 	mfhi	t3
    38ac:	000b3400 	sll	a2,t3,0x10
    38b0:	00c83025 	or	a2,a2,t0
    38b4:	00870018 	mult	a0,a3
    38b8:	00002012 	mflo	a0
    38bc:	00c4402b 	sltu	t0,a2,a0
    38c0:	14600002 	bnez	v1,38cc <__umoddi3+0x294>
    38c4:	00a3001b 	divu	zero,a1,v1
    38c8:	000001cd 	break	0x7
    38cc:	51000009 	beqzl	t0,38f4 <__umoddi3+0x2bc>
    38d0:	00c43023 	subu	a2,a2,a0
    38d4:	00c93021 	addu	a2,a2,t1
    38d8:	00c9282b 	sltu	a1,a2,t1
    38dc:	54a00005 	bnezl	a1,38f4 <__umoddi3+0x2bc>
    38e0:	00c43023 	subu	a2,a2,a0
    38e4:	00c4402b 	sltu	t0,a2,a0
    38e8:	00c92821 	addu	a1,a2,t1
    38ec:	00a8300b 	movn	a2,a1,t0
    38f0:	00c43023 	subu	a2,a2,a0
    38f4:	14600002 	bnez	v1,3900 <__umoddi3+0x2c8>
    38f8:	00c3001b 	divu	zero,a2,v1
    38fc:	000001cd 	break	0x7
    3900:	314affff 	andi	t2,t2,0xffff
    3904:	00002012 	mflo	a0
    3908:	00002810 	mfhi	a1
    390c:	00052c00 	sll	a1,a1,0x10
    3910:	00aa5025 	or	t2,a1,t2
    3914:	00870018 	mult	a0,a3
    3918:	00003812 	mflo	a3
    391c:	0147202b 	sltu	a0,t2,a3
    3920:	14600002 	bnez	v1,392c <__umoddi3+0x2f4>
    3924:	00c3001b 	divu	zero,a2,v1
    3928:	000001cd 	break	0x7
    392c:	50800009 	beqzl	a0,3954 <__umoddi3+0x31c>
    3930:	01475023 	subu	t2,t2,a3
    3934:	01495021 	addu	t2,t2,t1
    3938:	0149182b 	sltu	v1,t2,t1
    393c:	54600005 	bnezl	v1,3954 <__umoddi3+0x31c>
    3940:	01475023 	subu	t2,t2,a3
    3944:	0147182b 	sltu	v1,t2,a3
    3948:	01494821 	addu	t1,t2,t1
    394c:	0123500b 	movn	t2,t1,v1
    3950:	01475023 	subu	t2,t2,a3
    3954:	004a1006 	srlv	v0,t2,v0
    3958:	08000de2 	j	3788 <__umoddi3+0x150>
    395c:	00001821 	move	v1,zero
    3960:	00a01821 	move	v1,a1
    3964:	03e00008 	jr	ra
    3968:	00000000 	nop
    396c:	24020008 	li	v0,8
    3970:	0008100b 	movn	v0,zero,t0
    3974:	00404021 	move	t0,v0
    3978:	3c090000 	lui	t1,0x0
    397c:	01074006 	srlv	t0,a3,t0
    3980:	25295690 	addiu	t1,t1,22160
    3984:	01094021 	addu	t0,t0,t1
    3988:	00406021 	move	t4,v0
    398c:	91020000 	lbu	v0,0(t0)
    3990:	240b0020 	li	t3,32
    3994:	004c6021 	addu	t4,v0,t4
    3998:	016c5823 	subu	t3,t3,t4
    399c:	1160ff94 	beqz	t3,37f0 <__umoddi3+0x1b8>
    39a0:	00e5102b 	sltu	v0,a3,a1
    39a4:	01861006 	srlv	v0,a2,t4
    39a8:	01675004 	sllv	t2,a3,t3
    39ac:	01425025 	or	t2,t2,v0
    39b0:	01856806 	srlv	t5,a1,t4
    39b4:	000a3c02 	srl	a3,t2,0x10
    39b8:	14e00002 	bnez	a3,39c4 <__umoddi3+0x38c>
    39bc:	01a7001b 	divu	zero,t5,a3
    39c0:	000001cd 	break	0x7
    39c4:	314fffff 	andi	t7,t2,0xffff
    39c8:	01841006 	srlv	v0,a0,t4
    39cc:	01652804 	sllv	a1,a1,t3
    39d0:	00a22825 	or	a1,a1,v0
    39d4:	00051402 	srl	v0,a1,0x10
    39d8:	01663004 	sllv	a2,a2,t3
    39dc:	00001812 	mflo	v1
    39e0:	00004810 	mfhi	t1
    39e4:	00094c00 	sll	t1,t1,0x10
    39e8:	01224825 	or	t1,t1,v0
    39ec:	00007012 	mflo	t6
    39f0:	006f0018 	mult	v1,t7
    39f4:	0000c012 	mflo	t8
    39f8:	0138102b 	sltu	v0,t1,t8
    39fc:	14e00002 	bnez	a3,3a08 <__umoddi3+0x3d0>
    3a00:	01a7001b 	divu	zero,t5,a3
    3a04:	000001cd 	break	0x7
    3a08:	1040000a 	beqz	v0,3a34 <__umoddi3+0x3fc>
    3a0c:	01642004 	sllv	a0,a0,t3
    3a10:	012a4821 	addu	t1,t1,t2
    3a14:	012a102b 	sltu	v0,t1,t2
    3a18:	14400006 	bnez	v0,3a34 <__umoddi3+0x3fc>
    3a1c:	246effff 	addiu	t6,v1,-1
    3a20:	0138102b 	sltu	v0,t1,t8
    3a24:	50400004 	beqzl	v0,3a38 <__umoddi3+0x400>
    3a28:	01384823 	subu	t1,t1,t8
    3a2c:	246efffe 	addiu	t6,v1,-2
    3a30:	012a4821 	addu	t1,t1,t2
    3a34:	01384823 	subu	t1,t1,t8
    3a38:	14e00002 	bnez	a3,3a44 <__umoddi3+0x40c>
    3a3c:	0127001b 	divu	zero,t1,a3
    3a40:	000001cd 	break	0x7
    3a44:	30a5ffff 	andi	a1,a1,0xffff
    3a48:	00001812 	mflo	v1
    3a4c:	00001010 	mfhi	v0
    3a50:	00021400 	sll	v0,v0,0x10
    3a54:	00451025 	or	v0,v0,a1
    3a58:	00006812 	mflo	t5
    3a5c:	006f0018 	mult	v1,t7
    3a60:	00007812 	mflo	t7
    3a64:	004f282b 	sltu	a1,v0,t7
    3a68:	14e00002 	bnez	a3,3a74 <__umoddi3+0x43c>
    3a6c:	0127001b 	divu	zero,t1,a3
    3a70:	000001cd 	break	0x7
    3a74:	10a0000b 	beqz	a1,3aa4 <__umoddi3+0x46c>
    3a78:	000e4400 	sll	t0,t6,0x10
    3a7c:	004a1021 	addu	v0,v0,t2
    3a80:	004a282b 	sltu	a1,v0,t2
    3a84:	14a00007 	bnez	a1,3aa4 <__umoddi3+0x46c>
    3a88:	246dffff 	addiu	t5,v1,-1
    3a8c:	004f282b 	sltu	a1,v0,t7
    3a90:	10a00005 	beqz	a1,3aa8 <__umoddi3+0x470>
    3a94:	01a84025 	or	t0,t5,t0
    3a98:	246dfffe 	addiu	t5,v1,-2
    3a9c:	004a1021 	addu	v0,v0,t2
    3aa0:	000e4400 	sll	t0,t6,0x10
    3aa4:	01a84025 	or	t0,t5,t0
    3aa8:	01060019 	multu	t0,a2
    3aac:	004f7823 	subu	t7,v0,t7
    3ab0:	00004810 	mfhi	t1
    3ab4:	01e9282b 	sltu	a1,t7,t1
    3ab8:	01201821 	move	v1,t1
    3abc:	00004012 	mflo	t0
    3ac0:	01203821 	move	a3,t1
    3ac4:	14a00054 	bnez	a1,3c18 <__umoddi3+0x5e0>
    3ac8:	00001012 	mflo	v0
    3acc:	51e9005a 	beql	t7,t1,3c38 <__umoddi3+0x600>
    3ad0:	0088182b 	sltu	v1,a0,t0
    3ad4:	01e31823 	subu	v1,t7,v1
    3ad8:	00883023 	subu	a2,a0,t0
    3adc:	0086202b 	sltu	a0,a0,a2
    3ae0:	00641823 	subu	v1,v1,a0
    3ae4:	01836004 	sllv	t4,v1,t4
    3ae8:	01661006 	srlv	v0,a2,t3
    3aec:	004c1025 	or	v0,v0,t4
    3af0:	01631806 	srlv	v1,v1,t3
    3af4:	03e00008 	jr	ra
    3af8:	00000000 	nop
    3afc:	24020008 	li	v0,8
    3b00:	0007100b 	movn	v0,zero,a3
    3b04:	08000d9e 	j	3678 <__umoddi3+0x40>
    3b08:	00403821 	move	a3,v0
    3b0c:	24020008 	li	v0,8
    3b10:	0003100b 	movn	v0,zero,v1
    3b14:	3c060000 	lui	a2,0x0
    3b18:	00401821 	move	v1,v0
    3b1c:	24c65690 	addiu	a2,a2,22160
    3b20:	00491006 	srlv	v0,t1,v0
    3b24:	00461021 	addu	v0,v0,a2
    3b28:	90460000 	lbu	a2,0(v0)
    3b2c:	24020020 	li	v0,32
    3b30:	00c33021 	addu	a2,a2,v1
    3b34:	00461023 	subu	v0,v0,a2
    3b38:	5040ff54 	beqzl	v0,388c <__umoddi3+0x254>
    3b3c:	00a92823 	subu	a1,a1,t1
    3b40:	00494804 	sllv	t1,t1,v0
    3b44:	00c54006 	srlv	t0,a1,a2
    3b48:	00091c02 	srl	v1,t1,0x10
    3b4c:	14600002 	bnez	v1,3b58 <__umoddi3+0x520>
    3b50:	0103001b 	divu	zero,t0,v1
    3b54:	000001cd 	break	0x7
    3b58:	3127ffff 	andi	a3,t1,0xffff
    3b5c:	00452804 	sllv	a1,a1,v0
    3b60:	00c43006 	srlv	a2,a0,a2
    3b64:	00a63025 	or	a2,a1,a2
    3b68:	00062c02 	srl	a1,a2,0x10
    3b6c:	00445004 	sllv	t2,a0,v0
    3b70:	00005812 	mflo	t3
    3b74:	00006010 	mfhi	t4
    3b78:	000c2400 	sll	a0,t4,0x10
    3b7c:	00852025 	or	a0,a0,a1
    3b80:	01670018 	mult	t3,a3
    3b84:	00005812 	mflo	t3
    3b88:	008b282b 	sltu	a1,a0,t3
    3b8c:	14600002 	bnez	v1,3b98 <__umoddi3+0x560>
    3b90:	0103001b 	divu	zero,t0,v1
    3b94:	000001cd 	break	0x7
    3b98:	50a00006 	beqzl	a1,3bb4 <__umoddi3+0x57c>
    3b9c:	008b2023 	subu	a0,a0,t3
    3ba0:	00892021 	addu	a0,a0,t1
    3ba4:	0089282b 	sltu	a1,a0,t1
    3ba8:	10a00020 	beqz	a1,3c2c <__umoddi3+0x5f4>
    3bac:	008b402b 	sltu	t0,a0,t3
    3bb0:	008b2023 	subu	a0,a0,t3
    3bb4:	14600002 	bnez	v1,3bc0 <__umoddi3+0x588>
    3bb8:	0083001b 	divu	zero,a0,v1
    3bbc:	000001cd 	break	0x7
    3bc0:	30c6ffff 	andi	a2,a2,0xffff
    3bc4:	00004012 	mflo	t0
    3bc8:	00002810 	mfhi	a1
    3bcc:	00052c00 	sll	a1,a1,0x10
    3bd0:	00a62825 	or	a1,a1,a2
    3bd4:	01070018 	mult	t0,a3
    3bd8:	00004012 	mflo	t0
    3bdc:	00a8302b 	sltu	a2,a1,t0
    3be0:	14600002 	bnez	v1,3bec <__umoddi3+0x5b4>
    3be4:	0083001b 	divu	zero,a0,v1
    3be8:	000001cd 	break	0x7
    3bec:	50c0ff29 	beqzl	a2,3894 <__umoddi3+0x25c>
    3bf0:	00a82823 	subu	a1,a1,t0
    3bf4:	00a92821 	addu	a1,a1,t1
    3bf8:	00a9202b 	sltu	a0,a1,t1
    3bfc:	5480ff25 	bnezl	a0,3894 <__umoddi3+0x25c>
    3c00:	00a82823 	subu	a1,a1,t0
    3c04:	00a8302b 	sltu	a2,a1,t0
    3c08:	00a92021 	addu	a0,a1,t1
    3c0c:	0086280b 	movn	a1,a0,a2
    3c10:	08000e25 	j	3894 <__umoddi3+0x25c>
    3c14:	00a82823 	subu	a1,a1,t0
    3c18:	00464023 	subu	t0,v0,a2
    3c1c:	00ea1823 	subu	v1,a3,t2
    3c20:	0048102b 	sltu	v0,v0,t0
    3c24:	08000eb5 	j	3ad4 <__umoddi3+0x49c>
    3c28:	00621823 	subu	v1,v1,v0
    3c2c:	00892821 	addu	a1,a0,t1
    3c30:	08000eec 	j	3bb0 <__umoddi3+0x578>
    3c34:	00a8200b 	movn	a0,a1,t0
    3c38:	5460fff8 	bnezl	v1,3c1c <__umoddi3+0x5e4>
    3c3c:	00464023 	subu	t0,v0,a2
    3c40:	08000eb6 	j	3ad8 <__umoddi3+0x4a0>
    3c44:	00001821 	move	v1,zero

00003c48 <_fpadd_parts>:
    3c48:	8c830000 	lw	v1,0(a0)
    3c4c:	00801021 	move	v0,a0
    3c50:	2c640002 	sltiu	a0,v1,2
    3c54:	148000d7 	bnez	a0,3fb4 <_fpadd_parts+0x36c>
    3c58:	00000000 	nop
    3c5c:	8ca40000 	lw	a0,0(a1)
    3c60:	2c870002 	sltiu	a3,a0,2
    3c64:	14e000c8 	bnez	a3,3f88 <_fpadd_parts+0x340>
    3c68:	24070004 	li	a3,4
    3c6c:	106700c8 	beq	v1,a3,3f90 <_fpadd_parts+0x348>
    3c70:	00000000 	nop
    3c74:	108700c4 	beq	a0,a3,3f88 <_fpadd_parts+0x340>
    3c78:	24070002 	li	a3,2
    3c7c:	1087007d 	beq	a0,a3,3e74 <_fpadd_parts+0x22c>
    3c80:	00000000 	nop
    3c84:	506700cb 	beql	v1,a3,3fb4 <_fpadd_parts+0x36c>
    3c88:	00a01021 	move	v0,a1
    3c8c:	8c470008 	lw	a3,8(v0)
    3c90:	8cac0008 	lw	t4,8(a1)
    3c94:	8c4a0010 	lw	t2,16(v0)
    3c98:	8c4b0014 	lw	t3,20(v0)
    3c9c:	00ec2023 	subu	a0,a3,t4
    3ca0:	00041823 	negu	v1,a0
    3ca4:	0083182c 	max	v1,a0,v1
    3ca8:	286d0040 	slti	t5,v1,64
    3cac:	8ca80010 	lw	t0,16(a1)
    3cb0:	11a0005b 	beqz	t5,3e20 <_fpadd_parts+0x1d8>
    3cb4:	8ca90014 	lw	t1,20(a1)
    3cb8:	18800093 	blez	a0,3f08 <_fpadd_parts+0x2c0>
    3cbc:	306c0020 	andi	t4,v1,0x20
    3cc0:	24040001 	li	a0,1
    3cc4:	00642004 	sllv	a0,a0,v1
    3cc8:	00807021 	move	t6,a0
    3ccc:	000c200b 	movn	a0,zero,t4
    3cd0:	248dffff 	addiu	t5,a0,-1
    3cd4:	000c700a 	movz	t6,zero,t4
    3cd8:	01a4202b 	sltu	a0,t5,a0
    3cdc:	25ceffff 	addiu	t6,t6,-1
    3ce0:	0009c040 	sll	t8,t1,0x1
    3ce4:	00037827 	nor	t7,zero,v1
    3ce8:	008e7021 	addu	t6,a0,t6
    3cec:	01a86824 	and	t5,t5,t0
    3cf0:	00682006 	srlv	a0,t0,v1
    3cf4:	01c97024 	and	t6,t6,t1
    3cf8:	01f87804 	sllv	t7,t8,t7
    3cfc:	00691806 	srlv	v1,t1,v1
    3d00:	01e42025 	or	a0,t7,a0
    3d04:	01ae6825 	or	t5,t5,t6
    3d08:	006c200b 	movn	a0,v1,t4
    3d0c:	000d682b 	sltu	t5,zero,t5
    3d10:	00004821 	move	t1,zero
    3d14:	01a44025 	or	t0,t5,a0
    3d18:	006c480a 	movz	t1,v1,t4
    3d1c:	8c430004 	lw	v1,4(v0)
    3d20:	8ca20004 	lw	v0,4(a1)
    3d24:	10620047 	beq	v1,v0,3e44 <_fpadd_parts+0x1fc>
    3d28:	010a1021 	addu	v0,t0,t2
    3d2c:	10600064 	beqz	v1,3ec0 <_fpadd_parts+0x278>
    3d30:	01481023 	subu	v0,t2,t0
    3d34:	010a1023 	subu	v0,t0,t2
    3d38:	0102182b 	sltu	v1,t0,v0
    3d3c:	012b2023 	subu	a0,t1,t3
    3d40:	00832023 	subu	a0,a0,v1
    3d44:	04820064 	bltzl	a0,3ed8 <_fpadd_parts+0x290>
    3d48:	00021023 	negu	v0,v0
    3d4c:	acc00004 	sw	zero,4(a2)
    3d50:	acc70008 	sw	a3,8(a2)
    3d54:	acc20010 	sw	v0,16(a2)
    3d58:	acc40014 	sw	a0,20(a2)
    3d5c:	2447ffff 	addiu	a3,v0,-1
    3d60:	00e2282b 	sltu	a1,a3,v0
    3d64:	2483ffff 	addiu	v1,a0,-1
    3d68:	00a31821 	addu	v1,a1,v1
    3d6c:	3c051000 	lui	a1,0x1000
    3d70:	0065402b 	sltu	t0,v1,a1
    3d74:	11000018 	beqz	t0,3dd8 <_fpadd_parts+0x190>
    3d78:	24a5ffff 	addiu	a1,a1,-1
    3d7c:	5065007e 	beql	v1,a1,3f78 <_fpadd_parts+0x330>
    3d80:	2ce7ffff 	sltiu	a3,a3,-1
    3d84:	3c0a1000 	lui	t2,0x1000
    3d88:	8cc70008 	lw	a3,8(a2)
    3d8c:	08000f67 	j	3d9c <_fpadd_parts+0x154>
    3d90:	254bffff 	addiu	t3,t2,-1
    3d94:	10ab0033 	beq	a1,t3,3e64 <_fpadd_parts+0x21c>
    3d98:	2d08ffff 	sltiu	t0,t0,-1
    3d9c:	00022fc2 	srl	a1,v0,0x1f
    3da0:	00041840 	sll	v1,a0,0x1
    3da4:	00021040 	sll	v0,v0,0x1
    3da8:	00a31825 	or	v1,a1,v1
    3dac:	2448ffff 	addiu	t0,v0,-1
    3db0:	0102482b 	sltu	t1,t0,v0
    3db4:	2465ffff 	addiu	a1,v1,-1
    3db8:	01252821 	addu	a1,t1,a1
    3dbc:	00aa482b 	sltu	t1,a1,t2
    3dc0:	00602021 	move	a0,v1
    3dc4:	1520fff3 	bnez	t1,3d94 <_fpadd_parts+0x14c>
    3dc8:	24e7ffff 	addiu	a3,a3,-1
    3dcc:	acc20010 	sw	v0,16(a2)
    3dd0:	acc30014 	sw	v1,20(a2)
    3dd4:	acc70008 	sw	a3,8(a2)
    3dd8:	3c032000 	lui	v1,0x2000
    3ddc:	24050003 	li	a1,3
    3de0:	0083182b 	sltu	v1,a0,v1
    3de4:	1460000c 	bnez	v1,3e18 <_fpadd_parts+0x1d0>
    3de8:	acc50000 	sw	a1,0(a2)
    3dec:	8cc50008 	lw	a1,8(a2)
    3df0:	00043fc0 	sll	a3,a0,0x1f
    3df4:	00021842 	srl	v1,v0,0x1
    3df8:	00e31825 	or	v1,a3,v1
    3dfc:	30420001 	andi	v0,v0,0x1
    3e00:	00042042 	srl	a0,a0,0x1
    3e04:	00431825 	or	v1,v0,v1
    3e08:	24a50001 	addiu	a1,a1,1
    3e0c:	acc30010 	sw	v1,16(a2)
    3e10:	acc40014 	sw	a0,20(a2)
    3e14:	acc50008 	sw	a1,8(a2)
    3e18:	03e00008 	jr	ra
    3e1c:	00c01021 	move	v0,a2
    3e20:	0187182a 	slt	v1,t4,a3
    3e24:	50600035 	beqzl	v1,3efc <_fpadd_parts+0x2b4>
    3e28:	01803821 	move	a3,t4
    3e2c:	8c430004 	lw	v1,4(v0)
    3e30:	8ca20004 	lw	v0,4(a1)
    3e34:	00004021 	move	t0,zero
    3e38:	1462ffbc 	bne	v1,v0,3d2c <_fpadd_parts+0xe4>
    3e3c:	00004821 	move	t1,zero
    3e40:	010a1021 	addu	v0,t0,t2
    3e44:	0048282b 	sltu	a1,v0,t0
    3e48:	012b2021 	addu	a0,t1,t3
    3e4c:	00a42021 	addu	a0,a1,a0
    3e50:	acc30004 	sw	v1,4(a2)
    3e54:	acc70008 	sw	a3,8(a2)
    3e58:	acc20010 	sw	v0,16(a2)
    3e5c:	08000f76 	j	3dd8 <_fpadd_parts+0x190>
    3e60:	acc40014 	sw	a0,20(a2)
    3e64:	1500ffce 	bnez	t0,3da0 <_fpadd_parts+0x158>
    3e68:	00022fc2 	srl	a1,v0,0x1f
    3e6c:	08000f74 	j	3dd0 <_fpadd_parts+0x188>
    3e70:	acc20010 	sw	v0,16(a2)
    3e74:	1464004f 	bne	v1,a0,3fb4 <_fpadd_parts+0x36c>
    3e78:	00000000 	nop
    3e7c:	8c4a0004 	lw	t2,4(v0)
    3e80:	8c490008 	lw	t1,8(v0)
    3e84:	8c48000c 	lw	t0,12(v0)
    3e88:	8c470010 	lw	a3,16(v0)
    3e8c:	8c440014 	lw	a0,20(v0)
    3e90:	acca0004 	sw	t2,4(a2)
    3e94:	acc30000 	sw	v1,0(a2)
    3e98:	8c420004 	lw	v0,4(v0)
    3e9c:	8ca30004 	lw	v1,4(a1)
    3ea0:	acc90008 	sw	t1,8(a2)
    3ea4:	acc8000c 	sw	t0,12(a2)
    3ea8:	00621024 	and	v0,v1,v0
    3eac:	acc20004 	sw	v0,4(a2)
    3eb0:	acc70010 	sw	a3,16(a2)
    3eb4:	acc40014 	sw	a0,20(a2)
    3eb8:	03e00008 	jr	ra
    3ebc:	00c01021 	move	v0,a2
    3ec0:	0142182b 	sltu	v1,t2,v0
    3ec4:	01692023 	subu	a0,t3,t1
    3ec8:	00832023 	subu	a0,a0,v1
    3ecc:	0483ffa0 	bgezl	a0,3d50 <_fpadd_parts+0x108>
    3ed0:	acc00004 	sw	zero,4(a2)
    3ed4:	00021023 	negu	v0,v0
    3ed8:	0002182b 	sltu	v1,zero,v0
    3edc:	00042023 	negu	a0,a0
    3ee0:	00832023 	subu	a0,a0,v1
    3ee4:	24030001 	li	v1,1
    3ee8:	acc30004 	sw	v1,4(a2)
    3eec:	acc70008 	sw	a3,8(a2)
    3ef0:	acc20010 	sw	v0,16(a2)
    3ef4:	08000f57 	j	3d5c <_fpadd_parts+0x114>
    3ef8:	acc40014 	sw	a0,20(a2)
    3efc:	00005021 	move	t2,zero
    3f00:	08000f47 	j	3d1c <_fpadd_parts+0xd4>
    3f04:	00005821 	move	t3,zero
    3f08:	5080ff85 	beqzl	a0,3d20 <_fpadd_parts+0xd8>
    3f0c:	8c430004 	lw	v1,4(v0)
    3f10:	24040001 	li	a0,1
    3f14:	306c0020 	andi	t4,v1,0x20
    3f18:	00642004 	sllv	a0,a0,v1
    3f1c:	00807021 	move	t6,a0
    3f20:	000c200b 	movn	a0,zero,t4
    3f24:	248dffff 	addiu	t5,a0,-1
    3f28:	000c700a 	movz	t6,zero,t4
    3f2c:	01a4202b 	sltu	a0,t5,a0
    3f30:	25ceffff 	addiu	t6,t6,-1
    3f34:	000bc840 	sll	t9,t3,0x1
    3f38:	008e7021 	addu	t6,a0,t6
    3f3c:	0003c027 	nor	t8,zero,v1
    3f40:	01aa7824 	and	t7,t5,t2
    3f44:	006a2006 	srlv	a0,t2,v1
    3f48:	01cb7024 	and	t6,t6,t3
    3f4c:	0319c004 	sllv	t8,t9,t8
    3f50:	006b6806 	srlv	t5,t3,v1
    3f54:	03042025 	or	a0,t8,a0
    3f58:	01ee7025 	or	t6,t7,t6
    3f5c:	01ac200b 	movn	a0,t5,t4
    3f60:	000e702b 	sltu	t6,zero,t6
    3f64:	00005821 	move	t3,zero
    3f68:	01c45025 	or	t2,t6,a0
    3f6c:	00e33821 	addu	a3,a3,v1
    3f70:	08000f47 	j	3d1c <_fpadd_parts+0xd4>
    3f74:	01ac580a 	movz	t3,t5,t4
    3f78:	54e0ff83 	bnezl	a3,3d88 <_fpadd_parts+0x140>
    3f7c:	3c0a1000 	lui	t2,0x1000
    3f80:	08000f77 	j	3ddc <_fpadd_parts+0x194>
    3f84:	3c032000 	lui	v1,0x2000
    3f88:	03e00008 	jr	ra
    3f8c:	00a01021 	move	v0,a1
    3f90:	14830008 	bne	a0,v1,3fb4 <_fpadd_parts+0x36c>
    3f94:	00000000 	nop
    3f98:	8c440004 	lw	a0,4(v0)
    3f9c:	8ca30004 	lw	v1,4(a1)
    3fa0:	10830004 	beq	a0,v1,3fb4 <_fpadd_parts+0x36c>
    3fa4:	00000000 	nop
    3fa8:	3c020000 	lui	v0,0x0
    3fac:	03e00008 	jr	ra
    3fb0:	24425678 	addiu	v0,v0,22136
    3fb4:	03e00008 	jr	ra
    3fb8:	00000000 	nop

00003fbc <__adddf3>:
    3fbc:	27bdffa0 	addiu	sp,sp,-96
    3fc0:	afa40008 	sw	a0,8(sp)
    3fc4:	afa5000c 	sw	a1,12(sp)
    3fc8:	27a40008 	addiu	a0,sp,8
    3fcc:	27a50040 	addiu	a1,sp,64
    3fd0:	afbf005c 	sw	ra,92(sp)
    3fd4:	afa70004 	sw	a3,4(sp)
    3fd8:	0c001218 	jal	4860 <__unpack_d>
    3fdc:	afa60000 	sw	a2,0(sp)
    3fe0:	03a02021 	move	a0,sp
    3fe4:	0c001218 	jal	4860 <__unpack_d>
    3fe8:	27a50028 	addiu	a1,sp,40
    3fec:	27a40040 	addiu	a0,sp,64
    3ff0:	27a50028 	addiu	a1,sp,40
    3ff4:	0c000f12 	jal	3c48 <_fpadd_parts>
    3ff8:	27a60010 	addiu	a2,sp,16
    3ffc:	0c001188 	jal	4620 <__pack_d>
    4000:	00402021 	move	a0,v0
    4004:	8fbf005c 	lw	ra,92(sp)
    4008:	03e00008 	jr	ra
    400c:	27bd0060 	addiu	sp,sp,96

00004010 <__subdf3>:
    4010:	27bdffa0 	addiu	sp,sp,-96
    4014:	afa40008 	sw	a0,8(sp)
    4018:	afa5000c 	sw	a1,12(sp)
    401c:	27a40008 	addiu	a0,sp,8
    4020:	27a50040 	addiu	a1,sp,64
    4024:	afbf005c 	sw	ra,92(sp)
    4028:	afa70004 	sw	a3,4(sp)
    402c:	0c001218 	jal	4860 <__unpack_d>
    4030:	afa60000 	sw	a2,0(sp)
    4034:	03a02021 	move	a0,sp
    4038:	0c001218 	jal	4860 <__unpack_d>
    403c:	27a50028 	addiu	a1,sp,40
    4040:	8fa2002c 	lw	v0,44(sp)
    4044:	27a50028 	addiu	a1,sp,40
    4048:	27a60010 	addiu	a2,sp,16
    404c:	27a40040 	addiu	a0,sp,64
    4050:	38420001 	xori	v0,v0,0x1
    4054:	0c000f12 	jal	3c48 <_fpadd_parts>
    4058:	afa2002c 	sw	v0,44(sp)
    405c:	0c001188 	jal	4620 <__pack_d>
    4060:	00402021 	move	a0,v0
    4064:	8fbf005c 	lw	ra,92(sp)
    4068:	03e00008 	jr	ra
    406c:	27bd0060 	addiu	sp,sp,96

00004070 <__muldf3>:
    4070:	27bdffa0 	addiu	sp,sp,-96
    4074:	afa40008 	sw	a0,8(sp)
    4078:	afa5000c 	sw	a1,12(sp)
    407c:	27a40008 	addiu	a0,sp,8
    4080:	27a50040 	addiu	a1,sp,64
    4084:	afbf005c 	sw	ra,92(sp)
    4088:	afa60000 	sw	a2,0(sp)
    408c:	0c001218 	jal	4860 <__unpack_d>
    4090:	afa70004 	sw	a3,4(sp)
    4094:	03a02021 	move	a0,sp
    4098:	0c001218 	jal	4860 <__unpack_d>
    409c:	27a50028 	addiu	a1,sp,40
    40a0:	8fa20040 	lw	v0,64(sp)
    40a4:	2c430002 	sltiu	v1,v0,2
    40a8:	14600091 	bnez	v1,42f0 <__muldf3+0x280>
    40ac:	8fa30028 	lw	v1,40(sp)
    40b0:	2c640002 	sltiu	a0,v1,2
    40b4:	148000a3 	bnez	a0,4344 <__muldf3+0x2d4>
    40b8:	24040004 	li	a0,4
    40bc:	5044008a 	beql	v0,a0,42e8 <__muldf3+0x278>
    40c0:	24020002 	li	v0,2
    40c4:	106400a9 	beq	v1,a0,436c <__muldf3+0x2fc>
    40c8:	24040002 	li	a0,2
    40cc:	50440089 	beql	v0,a0,42f4 <__muldf3+0x284>
    40d0:	8fa30044 	lw	v1,68(sp)
    40d4:	1064009b 	beq	v1,a0,4344 <__muldf3+0x2d4>
    40d8:	8fad0050 	lw	t5,80(sp)
    40dc:	8fa6003c 	lw	a2,60(sp)
    40e0:	8fac0038 	lw	t4,56(sp)
    40e4:	8fa70054 	lw	a3,84(sp)
    40e8:	00cd0019 	multu	a2,t5
    40ec:	00001810 	mfhi	v1
    40f0:	00001012 	mflo	v0
    40f4:	00ec001d 	maddu	a3,t4
    40f8:	00005810 	mfhi	t3
    40fc:	0163402b 	sltu	t0,t3,v1
    4100:	00005012 	mflo	t2
    4104:	01ac0019 	multu	t5,t4
    4108:	00002012 	mflo	a0
    410c:	1100005b 	beqz	t0,427c <__muldf3+0x20c>
    4110:	00002810 	mfhi	a1
    4114:	00001021 	move	v0,zero
    4118:	00400013 	mtlo	v0
    411c:	00004021 	move	t0,zero
    4120:	24090001 	li	t1,1
    4124:	01400011 	mthi	t2
    4128:	01ac001d 	maddu	t5,t4
    412c:	00001810 	mfhi	v1
    4130:	0065602b 	sltu	t4,v1,a1
    4134:	1580005d 	bnez	t4,42ac <__muldf3+0x23c>
    4138:	00001012 	mflo	v0
    413c:	50a30061 	beql	a1,v1,42c4 <__muldf3+0x254>
    4140:	0044202b 	sltu	a0,v0,a0
    4144:	00002821 	move	a1,zero
    4148:	01600013 	mtlo	t3
    414c:	8faa0044 	lw	t2,68(sp)
    4150:	00a00011 	mthi	a1
    4154:	00e6001d 	maddu	a3,a2
    4158:	8fa70048 	lw	a3,72(sp)
    415c:	8fa60030 	lw	a2,48(sp)
    4160:	00e63021 	addu	a2,a3,a2
    4164:	8fa7002c 	lw	a3,44(sp)
    4168:	01473826 	xor	a3,t2,a3
    416c:	0007382b 	sltu	a3,zero,a3
    4170:	afa70014 	sw	a3,20(sp)
    4174:	24ca0004 	addiu	t2,a2,4
    4178:	afaa0018 	sw	t2,24(sp)
    417c:	24c60005 	addiu	a2,a2,5
    4180:	00002012 	mflo	a0
    4184:	00883821 	addu	a3,a0,t0
    4188:	00e4402b 	sltu	t0,a3,a0
    418c:	00002810 	mfhi	a1
    4190:	00a92021 	addu	a0,a1,t1
    4194:	01042821 	addu	a1,t0,a0
    4198:	3c082000 	lui	t0,0x2000
    419c:	00a8402b 	sltu	t0,a1,t0
    41a0:	15000013 	bnez	t0,41f0 <__muldf3+0x180>
    41a4:	00e02021 	move	a0,a3
    41a8:	3c0f8000 	lui	t7,0x8000
    41ac:	3c0e2000 	lui	t6,0x2000
    41b0:	000547c0 	sll	t0,a1,0x1f
    41b4:	30890001 	andi	t1,a0,0x1
    41b8:	00052842 	srl	a1,a1,0x1
    41bc:	000367c0 	sll	t4,v1,0x1f
    41c0:	00025842 	srl	t3,v0,0x1
    41c4:	00042042 	srl	a0,a0,0x1
    41c8:	00ae382b 	sltu	a3,a1,t6
    41cc:	00035042 	srl	t2,v1,0x1
    41d0:	11200003 	beqz	t1,41e0 <__muldf3+0x170>
    41d4:	00c06821 	move	t5,a2
    41d8:	018b1025 	or	v0,t4,t3
    41dc:	014f1825 	or	v1,t2,t7
    41e0:	01042025 	or	a0,t0,a0
    41e4:	10e0fff2 	beqz	a3,41b0 <__muldf3+0x140>
    41e8:	24c60001 	addiu	a2,a2,1
    41ec:	afad0018 	sw	t5,24(sp)
    41f0:	3c061000 	lui	a2,0x1000
    41f4:	00a6302b 	sltu	a2,a1,a2
    41f8:	10c00012 	beqz	a2,4244 <__muldf3+0x1d4>
    41fc:	8fa60018 	lw	a2,24(sp)
    4200:	3c0d1000 	lui	t5,0x1000
    4204:	00043fc2 	srl	a3,a0,0x1f
    4208:	00052840 	sll	a1,a1,0x1
    420c:	00042040 	sll	a0,a0,0x1
    4210:	00e52825 	or	a1,a3,a1
    4214:	286b0000 	slti	t3,v1,0
    4218:	00024fc2 	srl	t1,v0,0x1f
    421c:	00026040 	sll	t4,v0,0x1
    4220:	00034040 	sll	t0,v1,0x1
    4224:	348a0001 	ori	t2,a0,0x1
    4228:	00ad382b 	sltu	a3,a1,t5
    422c:	01801021 	move	v0,t4
    4230:	24c6ffff 	addiu	a2,a2,-1
    4234:	014b200b 	movn	a0,t2,t3
    4238:	14e0fff2 	bnez	a3,4204 <__muldf3+0x194>
    423c:	01281825 	or	v1,t1,t0
    4240:	afa60018 	sw	a2,24(sp)
    4244:	308700ff 	andi	a3,a0,0xff
    4248:	24060080 	li	a2,128
    424c:	10e60032 	beq	a3,a2,4318 <__muldf3+0x2a8>
    4250:	30860100 	andi	a2,a0,0x100
    4254:	24020003 	li	v0,3
    4258:	afa40020 	sw	a0,32(sp)
    425c:	afa50024 	sw	a1,36(sp)
    4260:	afa20010 	sw	v0,16(sp)
    4264:	27a40010 	addiu	a0,sp,16
    4268:	0c001188 	jal	4620 <__pack_d>
    426c:	00000000 	nop
    4270:	8fbf005c 	lw	ra,92(sp)
    4274:	03e00008 	jr	ra
    4278:	27bd0060 	addiu	sp,sp,96
    427c:	506b0015 	beql	v1,t3,42d4 <__muldf3+0x264>
    4280:	0142102b 	sltu	v0,t2,v0
    4284:	00004021 	move	t0,zero
    4288:	00004821 	move	t1,zero
    428c:	00001021 	move	v0,zero
    4290:	00400013 	mtlo	v0
    4294:	01400011 	mthi	t2
    4298:	01ac001d 	maddu	t5,t4
    429c:	00001810 	mfhi	v1
    42a0:	0065602b 	sltu	t4,v1,a1
    42a4:	1180ffa5 	beqz	t4,413c <__muldf3+0xcc>
    42a8:	00001012 	mflo	v0
    42ac:	25040001 	addiu	a0,t0,1
    42b0:	0088282b 	sltu	a1,a0,t0
    42b4:	00a92821 	addu	a1,a1,t1
    42b8:	00804021 	move	t0,a0
    42bc:	08001051 	j	4144 <__muldf3+0xd4>
    42c0:	00a04821 	move	t1,a1
    42c4:	1080ffa0 	beqz	a0,4148 <__muldf3+0xd8>
    42c8:	00002821 	move	a1,zero
    42cc:	080010ac 	j	42b0 <__muldf3+0x240>
    42d0:	25040001 	addiu	a0,t0,1
    42d4:	5440ff90 	bnezl	v0,4118 <__muldf3+0xa8>
    42d8:	00001021 	move	v0,zero
    42dc:	00004021 	move	t0,zero
    42e0:	080010a3 	j	428c <__muldf3+0x21c>
    42e4:	00004821 	move	t1,zero
    42e8:	10620024 	beq	v1,v0,437c <__muldf3+0x30c>
    42ec:	3c040000 	lui	a0,0x0
    42f0:	8fa30044 	lw	v1,68(sp)
    42f4:	8fa2002c 	lw	v0,44(sp)
    42f8:	27a40040 	addiu	a0,sp,64
    42fc:	00621026 	xor	v0,v1,v0
    4300:	0002102b 	sltu	v0,zero,v0
    4304:	0c001188 	jal	4620 <__pack_d>
    4308:	afa20044 	sw	v0,68(sp)
    430c:	8fbf005c 	lw	ra,92(sp)
    4310:	03e00008 	jr	ra
    4314:	27bd0060 	addiu	sp,sp,96
    4318:	54c0ffcf 	bnezl	a2,4258 <__muldf3+0x1e8>
    431c:	24020003 	li	v0,3
    4320:	00431025 	or	v0,v0,v1
    4324:	1040ffcc 	beqz	v0,4258 <__muldf3+0x1e8>
    4328:	24020003 	li	v0,3
    432c:	24820080 	addiu	v0,a0,128
    4330:	0044182b 	sltu	v1,v0,a0
    4334:	2404ff00 	li	a0,-256
    4338:	00442024 	and	a0,v0,a0
    433c:	08001095 	j	4254 <__muldf3+0x1e4>
    4340:	00652821 	addu	a1,v1,a1
    4344:	8fa2002c 	lw	v0,44(sp)
    4348:	8fa30044 	lw	v1,68(sp)
    434c:	27a40028 	addiu	a0,sp,40
    4350:	00621026 	xor	v0,v1,v0
    4354:	0002102b 	sltu	v0,zero,v0
    4358:	0c001188 	jal	4620 <__pack_d>
    435c:	afa2002c 	sw	v0,44(sp)
    4360:	8fbf005c 	lw	ra,92(sp)
    4364:	03e00008 	jr	ra
    4368:	27bd0060 	addiu	sp,sp,96
    436c:	24030002 	li	v1,2
    4370:	1443fff5 	bne	v0,v1,4348 <__muldf3+0x2d8>
    4374:	8fa2002c 	lw	v0,44(sp)
    4378:	3c040000 	lui	a0,0x0
    437c:	0800109a 	j	4268 <__muldf3+0x1f8>
    4380:	24845678 	addiu	a0,a0,22136

00004384 <__gtdf2>:
    4384:	27bdffb8 	addiu	sp,sp,-72
    4388:	afa40008 	sw	a0,8(sp)
    438c:	afa5000c 	sw	a1,12(sp)
    4390:	27a40008 	addiu	a0,sp,8
    4394:	27a50028 	addiu	a1,sp,40
    4398:	afbf0044 	sw	ra,68(sp)
    439c:	afa60000 	sw	a2,0(sp)
    43a0:	0c001218 	jal	4860 <__unpack_d>
    43a4:	afa70004 	sw	a3,4(sp)
    43a8:	03a02021 	move	a0,sp
    43ac:	0c001218 	jal	4860 <__unpack_d>
    43b0:	27a50010 	addiu	a1,sp,16
    43b4:	8fa30028 	lw	v1,40(sp)
    43b8:	2c630002 	sltiu	v1,v1,2
    43bc:	14600007 	bnez	v1,43dc <__gtdf2+0x58>
    43c0:	2402ffff 	li	v0,-1
    43c4:	8fa30010 	lw	v1,16(sp)
    43c8:	2c630002 	sltiu	v1,v1,2
    43cc:	14600003 	bnez	v1,43dc <__gtdf2+0x58>
    43d0:	27a40028 	addiu	a0,sp,40
    43d4:	0c001255 	jal	4954 <__fpcmp_parts_d>
    43d8:	27a50010 	addiu	a1,sp,16
    43dc:	8fbf0044 	lw	ra,68(sp)
    43e0:	03e00008 	jr	ra
    43e4:	27bd0048 	addiu	sp,sp,72

000043e8 <__gedf2>:
    43e8:	27bdffb8 	addiu	sp,sp,-72
    43ec:	afa40008 	sw	a0,8(sp)
    43f0:	afa5000c 	sw	a1,12(sp)
    43f4:	27a40008 	addiu	a0,sp,8
    43f8:	27a50028 	addiu	a1,sp,40
    43fc:	afbf0044 	sw	ra,68(sp)
    4400:	afa60000 	sw	a2,0(sp)
    4404:	0c001218 	jal	4860 <__unpack_d>
    4408:	afa70004 	sw	a3,4(sp)
    440c:	03a02021 	move	a0,sp
    4410:	0c001218 	jal	4860 <__unpack_d>
    4414:	27a50010 	addiu	a1,sp,16
    4418:	8fa30028 	lw	v1,40(sp)
    441c:	2c630002 	sltiu	v1,v1,2
    4420:	14600007 	bnez	v1,4440 <__gedf2+0x58>
    4424:	2402ffff 	li	v0,-1
    4428:	8fa30010 	lw	v1,16(sp)
    442c:	2c630002 	sltiu	v1,v1,2
    4430:	14600003 	bnez	v1,4440 <__gedf2+0x58>
    4434:	27a40028 	addiu	a0,sp,40
    4438:	0c001255 	jal	4954 <__fpcmp_parts_d>
    443c:	27a50010 	addiu	a1,sp,16
    4440:	8fbf0044 	lw	ra,68(sp)
    4444:	03e00008 	jr	ra
    4448:	27bd0048 	addiu	sp,sp,72

0000444c <__ltdf2>:
    444c:	27bdffb8 	addiu	sp,sp,-72
    4450:	afa40008 	sw	a0,8(sp)
    4454:	afa5000c 	sw	a1,12(sp)
    4458:	27a40008 	addiu	a0,sp,8
    445c:	27a50028 	addiu	a1,sp,40
    4460:	afbf0044 	sw	ra,68(sp)
    4464:	afa60000 	sw	a2,0(sp)
    4468:	0c001218 	jal	4860 <__unpack_d>
    446c:	afa70004 	sw	a3,4(sp)
    4470:	03a02021 	move	a0,sp
    4474:	0c001218 	jal	4860 <__unpack_d>
    4478:	27a50010 	addiu	a1,sp,16
    447c:	8fa30028 	lw	v1,40(sp)
    4480:	2c630002 	sltiu	v1,v1,2
    4484:	14600007 	bnez	v1,44a4 <__ltdf2+0x58>
    4488:	24020001 	li	v0,1
    448c:	8fa30010 	lw	v1,16(sp)
    4490:	2c630002 	sltiu	v1,v1,2
    4494:	14600003 	bnez	v1,44a4 <__ltdf2+0x58>
    4498:	27a40028 	addiu	a0,sp,40
    449c:	0c001255 	jal	4954 <__fpcmp_parts_d>
    44a0:	27a50010 	addiu	a1,sp,16
    44a4:	8fbf0044 	lw	ra,68(sp)
    44a8:	03e00008 	jr	ra
    44ac:	27bd0048 	addiu	sp,sp,72

000044b0 <__floatsidf>:
    44b0:	27bdffe0 	addiu	sp,sp,-32
    44b4:	000417c2 	srl	v0,a0,0x1f
    44b8:	24030003 	li	v1,3
    44bc:	afbf001c 	sw	ra,28(sp)
    44c0:	afa30000 	sw	v1,0(sp)
    44c4:	14800008 	bnez	a0,44e8 <__floatsidf+0x38>
    44c8:	afa20004 	sw	v0,4(sp)
    44cc:	24020002 	li	v0,2
    44d0:	afa20000 	sw	v0,0(sp)
    44d4:	0c001188 	jal	4620 <__pack_d>
    44d8:	03a02021 	move	a0,sp
    44dc:	8fbf001c 	lw	ra,28(sp)
    44e0:	03e00008 	jr	ra
    44e4:	27bd0020 	addiu	sp,sp,32
    44e8:	2403003c 	li	v1,60
    44ec:	10400005 	beqz	v0,4504 <__floatsidf+0x54>
    44f0:	afa30008 	sw	v1,8(sp)
    44f4:	3c028000 	lui	v0,0x8000
    44f8:	10820014 	beq	a0,v0,454c <__floatsidf+0x9c>
    44fc:	3c020000 	lui	v0,0x0
    4500:	00042023 	negu	a0,a0
    4504:	00801816 	clz	v1,a0
    4508:	2462001d 	addiu	v0,v1,29
    450c:	afa40010 	sw	a0,16(sp)
    4510:	1840fff0 	blez	v0,44d4 <__floatsidf+0x24>
    4514:	afa00014 	sw	zero,20(sp)
    4518:	00043842 	srl	a3,a0,0x1
    451c:	00023027 	nor	a2,zero,v0
    4520:	30450020 	andi	a1,v0,0x20
    4524:	00442004 	sllv	a0,a0,v0
    4528:	00c71006 	srlv	v0,a3,a2
    452c:	0085100b 	movn	v0,a0,a1
    4530:	0005200b 	movn	a0,zero,a1
    4534:	2405001f 	li	a1,31
    4538:	00a31823 	subu	v1,a1,v1
    453c:	afa20014 	sw	v0,20(sp)
    4540:	afa40010 	sw	a0,16(sp)
    4544:	08001135 	j	44d4 <__floatsidf+0x24>
    4548:	afa30008 	sw	v1,8(sp)
    454c:	8c435674 	lw	v1,22132(v0)
    4550:	08001137 	j	44dc <__floatsidf+0x2c>
    4554:	00001021 	move	v0,zero

00004558 <__fixdfsi>:
    4558:	27bdffd8 	addiu	sp,sp,-40
    455c:	afa40000 	sw	a0,0(sp)
    4560:	afa50004 	sw	a1,4(sp)
    4564:	03a02021 	move	a0,sp
    4568:	afbf0024 	sw	ra,36(sp)
    456c:	0c001218 	jal	4860 <__unpack_d>
    4570:	27a50008 	addiu	a1,sp,8
    4574:	8fa30008 	lw	v1,8(sp)
    4578:	24040002 	li	a0,2
    457c:	10640010 	beq	v1,a0,45c0 <__fixdfsi+0x68>
    4580:	00001021 	move	v0,zero
    4584:	2c640002 	sltiu	a0,v1,2
    4588:	1480000d 	bnez	a0,45c0 <__fixdfsi+0x68>
    458c:	24040004 	li	a0,4
    4590:	50640008 	beql	v1,a0,45b4 <__fixdfsi+0x5c>
    4594:	8fa2000c 	lw	v0,12(sp)
    4598:	8fa30010 	lw	v1,16(sp)
    459c:	04600009 	bltz	v1,45c4 <__fixdfsi+0x6c>
    45a0:	8fbf0024 	lw	ra,36(sp)
    45a4:	2862001f 	slti	v0,v1,31
    45a8:	14400008 	bnez	v0,45cc <__fixdfsi+0x74>
    45ac:	8fa2001c 	lw	v0,28(sp)
    45b0:	8fa2000c 	lw	v0,12(sp)
    45b4:	14400016 	bnez	v0,4610 <__fixdfsi+0xb8>
    45b8:	3c027fff 	lui	v0,0x7fff
    45bc:	3442ffff 	ori	v0,v0,0xffff
    45c0:	8fbf0024 	lw	ra,36(sp)
    45c4:	03e00008 	jr	ra
    45c8:	27bd0028 	addiu	sp,sp,40
    45cc:	2404003c 	li	a0,60
    45d0:	00831823 	subu	v1,a0,v1
    45d4:	00032027 	nor	a0,zero,v1
    45d8:	00023040 	sll	a2,v0,0x1
    45dc:	00863004 	sllv	a2,a2,a0
    45e0:	8fa40018 	lw	a0,24(sp)
    45e4:	30650020 	andi	a1,v1,0x20
    45e8:	00621006 	srlv	v0,v0,v1
    45ec:	00642006 	srlv	a0,a0,v1
    45f0:	00c42025 	or	a0,a2,a0
    45f4:	0085100a 	movz	v0,a0,a1
    45f8:	8fbf0024 	lw	ra,36(sp)
    45fc:	8fa4000c 	lw	a0,12(sp)
    4600:	00021823 	negu	v1,v0
    4604:	27bd0028 	addiu	sp,sp,40
    4608:	03e00008 	jr	ra
    460c:	0064100b 	movn	v0,v1,a0
    4610:	8fbf0024 	lw	ra,36(sp)
    4614:	3c028000 	lui	v0,0x8000
    4618:	03e00008 	jr	ra
    461c:	27bd0028 	addiu	sp,sp,40

00004620 <__pack_d>:
    4620:	8c820000 	lw	v0,0(a0)
    4624:	27bdffd8 	addiu	sp,sp,-40
    4628:	afb40014 	sw	s4,20(sp)
    462c:	afbf0024 	sw	ra,36(sp)
    4630:	afb70020 	sw	s7,32(sp)
    4634:	afb6001c 	sw	s6,28(sp)
    4638:	afb50018 	sw	s5,24(sp)
    463c:	afb30010 	sw	s3,16(sp)
    4640:	afb2000c 	sw	s2,12(sp)
    4644:	afb10008 	sw	s1,8(sp)
    4648:	afb00004 	sw	s0,4(sp)
    464c:	2c430002 	sltiu	v1,v0,2
    4650:	8c930010 	lw	s3,16(a0)
    4654:	8c920014 	lw	s2,20(a0)
    4658:	14600046 	bnez	v1,4774 <__pack_d+0x154>
    465c:	8c940004 	lw	s4,4(a0)
    4660:	24030004 	li	v1,4
    4664:	50430040 	beql	v0,v1,4768 <__pack_d+0x148>
    4668:	241507ff 	li	s5,2047
    466c:	24030002 	li	v1,2
    4670:	1043001d 	beq	v0,v1,46e8 <__pack_d+0xc8>
    4674:	02721025 	or	v0,s3,s2
    4678:	1040001c 	beqz	v0,46ec <__pack_d+0xcc>
    467c:	0000a821 	move	s5,zero
    4680:	8c950008 	lw	s5,8(a0)
    4684:	2aa2fc02 	slti	v0,s5,-1022
    4688:	14400042 	bnez	v0,4794 <__pack_d+0x174>
    468c:	2aa20400 	slti	v0,s5,1024
    4690:	50400035 	beqzl	v0,4768 <__pack_d+0x148>
    4694:	241507ff 	li	s5,2047
    4698:	326300ff 	andi	v1,s3,0xff
    469c:	24020080 	li	v0,128
    46a0:	10620029 	beq	v1,v0,4748 <__pack_d+0x128>
    46a4:	2662007f 	addiu	v0,s3,127
    46a8:	0053982b 	sltu	s3,v0,s3
    46ac:	02729021 	addu	s2,s3,s2
    46b0:	00409821 	move	s3,v0
    46b4:	3c022000 	lui	v0,0x2000
    46b8:	0242102b 	sltu	v0,s2,v0
    46bc:	5040001d 	beqzl	v0,4734 <__pack_d+0x114>
    46c0:	001217c0 	sll	v0,s2,0x1f
    46c4:	26b503ff 	addiu	s5,s5,1023
    46c8:	00122600 	sll	a0,s2,0x18
    46cc:	00121a02 	srl	v1,s2,0x8
    46d0:	00131202 	srl	v0,s3,0x8
    46d4:	00821025 	or	v0,a0,v0
    46d8:	7c649800 	ext	a0,v1,0x0,0x14
    46dc:	00801821 	move	v1,a0
    46e0:	080011bd 	j	46f4 <__pack_d+0xd4>
    46e4:	32b507ff 	andi	s5,s5,0x7ff
    46e8:	0000a821 	move	s5,zero
    46ec:	00001021 	move	v0,zero
    46f0:	00001821 	move	v1,zero
    46f4:	00002021 	move	a0,zero
    46f8:	7c649804 	ins	a0,v1,0x0,0x14
    46fc:	8fbf0024 	lw	ra,36(sp)
    4700:	7ea4f504 	ins	a0,s5,0x14,0xb
    4704:	7e84ffc4 	ins	a0,s4,0x1f,0x1
    4708:	00801821 	move	v1,a0
    470c:	8fb70020 	lw	s7,32(sp)
    4710:	8fb6001c 	lw	s6,28(sp)
    4714:	8fb50018 	lw	s5,24(sp)
    4718:	8fb40014 	lw	s4,20(sp)
    471c:	8fb30010 	lw	s3,16(sp)
    4720:	8fb2000c 	lw	s2,12(sp)
    4724:	8fb10008 	lw	s1,8(sp)
    4728:	8fb00004 	lw	s0,4(sp)
    472c:	03e00008 	jr	ra
    4730:	27bd0028 	addiu	sp,sp,40
    4734:	00139842 	srl	s3,s3,0x1
    4738:	00539825 	or	s3,v0,s3
    473c:	00129042 	srl	s2,s2,0x1
    4740:	080011b2 	j	46c8 <__pack_d+0xa8>
    4744:	26b50400 	addiu	s5,s5,1024
    4748:	32620100 	andi	v0,s3,0x100
    474c:	1040ffda 	beqz	v0,46b8 <__pack_d+0x98>
    4750:	3c022000 	lui	v0,0x2000
    4754:	26620080 	addiu	v0,s3,128
    4758:	0053982b 	sltu	s3,v0,s3
    475c:	02729021 	addu	s2,s3,s2
    4760:	080011ad 	j	46b4 <__pack_d+0x94>
    4764:	00409821 	move	s3,v0
    4768:	00001021 	move	v0,zero
    476c:	080011bd 	j	46f4 <__pack_d+0xd4>
    4770:	00001821 	move	v1,zero
    4774:	3c040007 	lui	a0,0x7
    4778:	3484ffff 	ori	a0,a0,0xffff
    477c:	02441825 	or	v1,s2,a0
    4780:	7c649800 	ext	a0,v1,0x0,0x14
    4784:	2402ffff 	li	v0,-1
    4788:	00801821 	move	v1,a0
    478c:	080011bd 	j	46f4 <__pack_d+0xd4>
    4790:	241507ff 	li	s5,2047
    4794:	2402fc02 	li	v0,-1022
    4798:	0055a823 	subu	s5,v0,s5
    479c:	2aa20039 	slti	v0,s5,57
    47a0:	00008021 	move	s0,zero
    47a4:	10400028 	beqz	v0,4848 <__pack_d+0x228>
    47a8:	00008821 	move	s1,zero
    47ac:	02402821 	move	a1,s2
    47b0:	02602021 	move	a0,s3
    47b4:	0c0012a2 	jal	4a88 <__lshrdi3>
    47b8:	02a03021 	move	a2,s5
    47bc:	24040001 	li	a0,1
    47c0:	00002821 	move	a1,zero
    47c4:	02a03021 	move	a2,s5
    47c8:	0040b821 	move	s7,v0
    47cc:	0c0012b3 	jal	4acc <__ashldi3>
    47d0:	0060b021 	move	s6,v1
    47d4:	2c440001 	sltiu	a0,v0,1
    47d8:	00641823 	subu	v1,v1,a0
    47dc:	2442ffff 	addiu	v0,v0,-1
    47e0:	00729024 	and	s2,v1,s2
    47e4:	00531024 	and	v0,v0,s3
    47e8:	00521025 	or	v0,v0,s2
    47ec:	0002102b 	sltu	v0,zero,v0
    47f0:	00578025 	or	s0,v0,s7
    47f4:	320300ff 	andi	v1,s0,0xff
    47f8:	24020080 	li	v0,128
    47fc:	14620012 	bne	v1,v0,4848 <__pack_d+0x228>
    4800:	02c08821 	move	s1,s6
    4804:	32020100 	andi	v0,s0,0x100
    4808:	10400006 	beqz	v0,4824 <__pack_d+0x204>
    480c:	00112600 	sll	a0,s1,0x18
    4810:	26020080 	addiu	v0,s0,128
    4814:	0050182b 	sltu	v1,v0,s0
    4818:	00768821 	addu	s1,v1,s6
    481c:	00408021 	move	s0,v0
    4820:	00112600 	sll	a0,s1,0x18
    4824:	00111a02 	srl	v1,s1,0x8
    4828:	00101202 	srl	v0,s0,0x8
    482c:	3c151000 	lui	s5,0x1000
    4830:	00821025 	or	v0,a0,v0
    4834:	0235a82b 	sltu	s5,s1,s5
    4838:	7c649800 	ext	a0,v1,0x0,0x14
    483c:	00801821 	move	v1,a0
    4840:	080011bd 	j	46f4 <__pack_d+0xd4>
    4844:	3ab50001 	xori	s5,s5,0x1
    4848:	2602007f 	addiu	v0,s0,127
    484c:	0050182b 	sltu	v1,v0,s0
    4850:	00711821 	addu	v1,v1,s1
    4854:	00408021 	move	s0,v0
    4858:	08001208 	j	4820 <__pack_d+0x200>
    485c:	00608821 	move	s1,v1

00004860 <__unpack_d>:
    4860:	8c820004 	lw	v0,4(a0)
    4864:	8c830000 	lw	v1,0(a0)
    4868:	000237c2 	srl	a2,v0,0x1f
    486c:	7c445500 	ext	a0,v0,0x14,0xb
    4870:	aca60004 	sw	a2,4(a1)
    4874:	14800019 	bnez	a0,48dc <__unpack_d+0x7c>
    4878:	7c429800 	ext	v0,v0,0x0,0x14
    487c:	00622025 	or	a0,v1,v0
    4880:	10800025 	beqz	a0,4918 <__unpack_d+0xb8>
    4884:	00032602 	srl	a0,v1,0x18
    4888:	00021200 	sll	v0,v0,0x8
    488c:	2406fc02 	li	a2,-1022
    4890:	00821025 	or	v0,a0,v0
    4894:	24040003 	li	a0,3
    4898:	aca40000 	sw	a0,0(a1)
    489c:	aca60008 	sw	a2,8(a1)
    48a0:	00031a00 	sll	v1,v1,0x8
    48a4:	2404fc01 	li	a0,-1023
    48a8:	3c071000 	lui	a3,0x1000
    48ac:	000337c2 	srl	a2,v1,0x1f
    48b0:	00021040 	sll	v0,v0,0x1
    48b4:	00c21025 	or	v0,a2,v0
    48b8:	0047302b 	sltu	a2,v0,a3
    48bc:	00804021 	move	t0,a0
    48c0:	00031840 	sll	v1,v1,0x1
    48c4:	14c0fff9 	bnez	a2,48ac <__unpack_d+0x4c>
    48c8:	2484ffff 	addiu	a0,a0,-1
    48cc:	aca80008 	sw	t0,8(a1)
    48d0:	aca30010 	sw	v1,16(a1)
    48d4:	03e00008 	jr	ra
    48d8:	aca20014 	sw	v0,20(a1)
    48dc:	240607ff 	li	a2,2047
    48e0:	10860010 	beq	a0,a2,4924 <__unpack_d+0xc4>
    48e4:	00033602 	srl	a2,v1,0x18
    48e8:	00021200 	sll	v0,v0,0x8
    48ec:	00c21025 	or	v0,a2,v0
    48f0:	2484fc01 	addiu	a0,a0,-1023
    48f4:	3c061000 	lui	a2,0x1000
    48f8:	00031a00 	sll	v1,v1,0x8
    48fc:	00461025 	or	v0,v0,a2
    4900:	aca40008 	sw	a0,8(a1)
    4904:	24040003 	li	a0,3
    4908:	aca40000 	sw	a0,0(a1)
    490c:	aca30010 	sw	v1,16(a1)
    4910:	03e00008 	jr	ra
    4914:	aca20014 	sw	v0,20(a1)
    4918:	24020002 	li	v0,2
    491c:	03e00008 	jr	ra
    4920:	aca20000 	sw	v0,0(a1)
    4924:	00622025 	or	a0,v1,v0
    4928:	10800007 	beqz	a0,4948 <__unpack_d+0xe8>
    492c:	3c040008 	lui	a0,0x8
    4930:	00822024 	and	a0,a0,v0
    4934:	2c840001 	sltiu	a0,a0,1
    4938:	aca40000 	sw	a0,0(a1)
    493c:	aca30010 	sw	v1,16(a1)
    4940:	03e00008 	jr	ra
    4944:	aca20014 	sw	v0,20(a1)
    4948:	24020004 	li	v0,4
    494c:	03e00008 	jr	ra
    4950:	aca20000 	sw	v0,0(a1)

00004954 <__fpcmp_parts_d>:
    4954:	8c830000 	lw	v1,0(a0)
    4958:	2c660002 	sltiu	a2,v1,2
    495c:	14c0001b 	bnez	a2,49cc <__fpcmp_parts_d+0x78>
    4960:	24020001 	li	v0,1
    4964:	8ca60000 	lw	a2,0(a1)
    4968:	2cc70002 	sltiu	a3,a2,2
    496c:	14e00017 	bnez	a3,49cc <__fpcmp_parts_d+0x78>
    4970:	24070004 	li	a3,4
    4974:	1067003e 	beq	v1,a3,4a70 <__fpcmp_parts_d+0x11c>
    4978:	00000000 	nop
    497c:	10c70038 	beq	a2,a3,4a60 <__fpcmp_parts_d+0x10c>
    4980:	24070002 	li	a3,2
    4984:	10670013 	beq	v1,a3,49d4 <__fpcmp_parts_d+0x80>
    4988:	00000000 	nop
    498c:	50c70018 	beql	a2,a3,49f0 <__fpcmp_parts_d+0x9c>
    4990:	8c840004 	lw	a0,4(a0)
    4994:	8c830004 	lw	v1,4(a0)
    4998:	8ca60004 	lw	a2,4(a1)
    499c:	50660017 	beql	v1,a2,49fc <__fpcmp_parts_d+0xa8>
    49a0:	8c870008 	lw	a3,8(a0)
    49a4:	2404ffff 	li	a0,-1
    49a8:	03e00008 	jr	ra
    49ac:	0083100b 	movn	v0,a0,v1
    49b0:	54800028 	bnezl	a0,4a54 <__fpcmp_parts_d+0x100>
    49b4:	24020001 	li	v0,1
    49b8:	14c20003 	bne	a2,v0,49c8 <__fpcmp_parts_d+0x74>
    49bc:	00e5282b 	sltu	a1,a3,a1
    49c0:	54a00024 	bnezl	a1,4a54 <__fpcmp_parts_d+0x100>
    49c4:	24020001 	li	v0,1
    49c8:	00001021 	move	v0,zero
    49cc:	03e00008 	jr	ra
    49d0:	00000000 	nop
    49d4:	10c3fffd 	beq	a2,v1,49cc <__fpcmp_parts_d+0x78>
    49d8:	00001021 	move	v0,zero
    49dc:	8ca40004 	lw	a0,4(a1)
    49e0:	24020001 	li	v0,1
    49e4:	2403ffff 	li	v1,-1
    49e8:	03e00008 	jr	ra
    49ec:	0064100a 	movz	v0,v1,a0
    49f0:	2403ffff 	li	v1,-1
    49f4:	03e00008 	jr	ra
    49f8:	0064100b 	movn	v0,v1,a0
    49fc:	8ca60008 	lw	a2,8(a1)
    4a00:	00c7402a 	slt	t0,a2,a3
    4a04:	5500ffe8 	bnezl	t0,49a8 <__fpcmp_parts_d+0x54>
    4a08:	2404ffff 	li	a0,-1
    4a0c:	00e6302a 	slt	a2,a3,a2
    4a10:	54c00011 	bnezl	a2,4a58 <__fpcmp_parts_d+0x104>
    4a14:	2404ffff 	li	a0,-1
    4a18:	8ca60014 	lw	a2,20(a1)
    4a1c:	8c820014 	lw	v0,20(a0)
    4a20:	8c870010 	lw	a3,16(a0)
    4a24:	00c2202b 	sltu	a0,a2,v0
    4a28:	14800006 	bnez	a0,4a44 <__fpcmp_parts_d+0xf0>
    4a2c:	8ca50010 	lw	a1,16(a1)
    4a30:	1446ffdf 	bne	v0,a2,49b0 <__fpcmp_parts_d+0x5c>
    4a34:	0046202b 	sltu	a0,v0,a2
    4a38:	00a7202b 	sltu	a0,a1,a3
    4a3c:	1080ffdc 	beqz	a0,49b0 <__fpcmp_parts_d+0x5c>
    4a40:	0046202b 	sltu	a0,v0,a2
    4a44:	2402ffff 	li	v0,-1
    4a48:	24040001 	li	a0,1
    4a4c:	03e00008 	jr	ra
    4a50:	0083100a 	movz	v0,a0,v1
    4a54:	2404ffff 	li	a0,-1
    4a58:	03e00008 	jr	ra
    4a5c:	0083100a 	movz	v0,a0,v1
    4a60:	8ca40004 	lw	a0,4(a1)
    4a64:	2403ffff 	li	v1,-1
    4a68:	03e00008 	jr	ra
    4a6c:	0064100a 	movz	v0,v1,a0
    4a70:	54c3ffdf 	bnel	a2,v1,49f0 <__fpcmp_parts_d+0x9c>
    4a74:	8c840004 	lw	a0,4(a0)
    4a78:	8ca30004 	lw	v1,4(a1)
    4a7c:	8c820004 	lw	v0,4(a0)
    4a80:	03e00008 	jr	ra
    4a84:	00621023 	subu	v0,v1,v0

00004a88 <__lshrdi3>:
    4a88:	10c0000a 	beqz	a2,4ab4 <__lshrdi3+0x2c>
    4a8c:	00801021 	move	v0,a0
    4a90:	24030020 	li	v1,32
    4a94:	00661823 	subu	v1,v1,a2
    4a98:	58600008 	blezl	v1,4abc <__lshrdi3+0x34>
    4a9c:	00031023 	negu	v0,v1
    4aa0:	00651804 	sllv	v1,a1,v1
    4aa4:	00c41006 	srlv	v0,a0,a2
    4aa8:	00c53006 	srlv	a2,a1,a2
    4aac:	00621025 	or	v0,v1,v0
    4ab0:	00c02821 	move	a1,a2
    4ab4:	03e00008 	jr	ra
    4ab8:	00a01821 	move	v1,a1
    4abc:	00003021 	move	a2,zero
    4ac0:	00451006 	srlv	v0,a1,v0
    4ac4:	080012ad 	j	4ab4 <__lshrdi3+0x2c>
    4ac8:	00c02821 	move	a1,a2

00004acc <__ashldi3>:
    4acc:	10c0000a 	beqz	a2,4af8 <__ashldi3+0x2c>
    4ad0:	00801021 	move	v0,a0
    4ad4:	24030020 	li	v1,32
    4ad8:	00661823 	subu	v1,v1,a2
    4adc:	58600008 	blezl	v1,4b00 <__ashldi3+0x34>
    4ae0:	00032823 	negu	a1,v1
    4ae4:	00c52804 	sllv	a1,a1,a2
    4ae8:	00641806 	srlv	v1,a0,v1
    4aec:	00c43004 	sllv	a2,a0,a2
    4af0:	00652825 	or	a1,v1,a1
    4af4:	00c01021 	move	v0,a2
    4af8:	03e00008 	jr	ra
    4afc:	00a01821 	move	v1,a1
    4b00:	00003021 	move	a2,zero
    4b04:	00a42804 	sllv	a1,a0,a1
    4b08:	080012be 	j	4af8 <__ashldi3+0x2c>
    4b0c:	00c01021 	move	v0,a2

Disassembly of section .sceStub.text:

00004b10 <sceRtcGetCurrentClockLocalTime>:
    4b10:	03e00008 	jr	ra
    4b14:	00000000 	nop

00004b18 <sceIoClose>:
    4b18:	03e00008 	jr	ra
    4b1c:	00000000 	nop

00004b20 <sceIoOpen>:
    4b20:	03e00008 	jr	ra
    4b24:	00000000 	nop

00004b28 <sceIoRead>:
    4b28:	03e00008 	jr	ra
    4b2c:	00000000 	nop

00004b30 <sceIoWrite>:
    4b30:	03e00008 	jr	ra
    4b34:	00000000 	nop

00004b38 <sceIoChdir>:
    4b38:	03e00008 	jr	ra
    4b3c:	00000000 	nop

00004b40 <sceKernelMaxFreeMemSize>:
    4b40:	03e00008 	jr	ra
    4b44:	00000000 	nop

00004b48 <sceKernelAllocPartitionMemory>:
    4b48:	03e00008 	jr	ra
    4b4c:	00000000 	nop

00004b50 <sceKernelFreePartitionMemory>:
    4b50:	03e00008 	jr	ra
    4b54:	00000000 	nop

00004b58 <sceKernelGetBlockHeadAddr>:
    4b58:	03e00008 	jr	ra
    4b5c:	00000000 	nop

00004b60 <sceKernelSleepThread>:
    4b60:	03e00008 	jr	ra
    4b64:	00000000 	nop

00004b68 <sceKernelWakeupThread>:
    4b68:	03e00008 	jr	ra
    4b6c:	00000000 	nop

00004b70 <sceKernelCreateThread>:
    4b70:	03e00008 	jr	ra
    4b74:	00000000 	nop

00004b78 <sceKernelDeleteThread>:
    4b78:	03e00008 	jr	ra
    4b7c:	00000000 	nop

00004b80 <sceKernelStartThread>:
    4b80:	03e00008 	jr	ra
    4b84:	00000000 	nop

00004b88 <sceKernelExitDeleteThread>:
    4b88:	03e00008 	jr	ra
    4b8c:	00000000 	nop

00004b90 <sceKernelTerminateDeleteThread>:
    4b90:	03e00008 	jr	ra
    4b94:	00000000 	nop

00004b98 <sceKernelFindModuleByName>:
    4b98:	03e00008 	jr	ra
    4b9c:	00000000 	nop
